
Release/rfr26-tempSensor.bin:     file format binary


Disassembly of section .data:

08000000 <.data>:
 8000000:	5000      	str	r0, [r0, r0]
 8000002:	2000      	movs	r0, #0
 8000004:	07bd      	lsls	r5, r7, #30
 8000006:	0800      	lsrs	r0, r0, #32
 8000008:	0715      	lsls	r5, r2, #28
 800000a:	0800      	lsrs	r0, r0, #32
 800000c:	0717      	lsls	r7, r2, #28
 800000e:	0800      	lsrs	r0, r0, #32
 8000010:	0719      	lsls	r1, r3, #28
 8000012:	0800      	lsrs	r0, r0, #32
 8000014:	071b      	lsls	r3, r3, #28
 8000016:	0800      	lsrs	r0, r0, #32
 8000018:	071d      	lsls	r5, r3, #28
 800001a:	0800      	lsrs	r0, r0, #32
	...
 800002c:	071f      	lsls	r7, r3, #28
 800002e:	0800      	lsrs	r0, r0, #32
 8000030:	0721      	lsls	r1, r4, #28
 8000032:	0800      	lsrs	r0, r0, #32
 8000034:	0000      	movs	r0, r0
 8000036:	0000      	movs	r0, r0
 8000038:	0723      	lsls	r3, r4, #28
 800003a:	0800      	lsrs	r0, r0, #32
 800003c:	0725      	lsls	r5, r4, #28
 800003e:	0800      	lsrs	r0, r0, #32
 8000040:	0805      	lsrs	r5, r0, #32
 8000042:	0800      	lsrs	r0, r0, #32
 8000044:	0805      	lsrs	r5, r0, #32
 8000046:	0800      	lsrs	r0, r0, #32
 8000048:	0805      	lsrs	r5, r0, #32
 800004a:	0800      	lsrs	r0, r0, #32
 800004c:	0805      	lsrs	r5, r0, #32
 800004e:	0800      	lsrs	r0, r0, #32
 8000050:	0805      	lsrs	r5, r0, #32
 8000052:	0800      	lsrs	r0, r0, #32
 8000054:	0805      	lsrs	r5, r0, #32
 8000056:	0800      	lsrs	r0, r0, #32
 8000058:	0805      	lsrs	r5, r0, #32
 800005a:	0800      	lsrs	r0, r0, #32
 800005c:	0805      	lsrs	r5, r0, #32
 800005e:	0800      	lsrs	r0, r0, #32
 8000060:	0805      	lsrs	r5, r0, #32
 8000062:	0800      	lsrs	r0, r0, #32
 8000064:	0805      	lsrs	r5, r0, #32
 8000066:	0800      	lsrs	r0, r0, #32
 8000068:	0805      	lsrs	r5, r0, #32
 800006a:	0800      	lsrs	r0, r0, #32
 800006c:	0805      	lsrs	r5, r0, #32
 800006e:	0800      	lsrs	r0, r0, #32
 8000070:	0805      	lsrs	r5, r0, #32
 8000072:	0800      	lsrs	r0, r0, #32
 8000074:	0805      	lsrs	r5, r0, #32
 8000076:	0800      	lsrs	r0, r0, #32
 8000078:	0805      	lsrs	r5, r0, #32
 800007a:	0800      	lsrs	r0, r0, #32
 800007c:	0805      	lsrs	r5, r0, #32
 800007e:	0800      	lsrs	r0, r0, #32
 8000080:	0805      	lsrs	r5, r0, #32
 8000082:	0800      	lsrs	r0, r0, #32
 8000084:	0805      	lsrs	r5, r0, #32
 8000086:	0800      	lsrs	r0, r0, #32
 8000088:	0805      	lsrs	r5, r0, #32
 800008a:	0800      	lsrs	r0, r0, #32
 800008c:	0805      	lsrs	r5, r0, #32
 800008e:	0800      	lsrs	r0, r0, #32
 8000090:	0805      	lsrs	r5, r0, #32
 8000092:	0800      	lsrs	r0, r0, #32
 8000094:	0805      	lsrs	r5, r0, #32
 8000096:	0800      	lsrs	r0, r0, #32
 8000098:	0805      	lsrs	r5, r0, #32
 800009a:	0800      	lsrs	r0, r0, #32
 800009c:	0805      	lsrs	r5, r0, #32
 800009e:	0800      	lsrs	r0, r0, #32
 80000a0:	0805      	lsrs	r5, r0, #32
 80000a2:	0800      	lsrs	r0, r0, #32
 80000a4:	0805      	lsrs	r5, r0, #32
 80000a6:	0800      	lsrs	r0, r0, #32
 80000a8:	0805      	lsrs	r5, r0, #32
 80000aa:	0800      	lsrs	r0, r0, #32
 80000ac:	0805      	lsrs	r5, r0, #32
 80000ae:	0800      	lsrs	r0, r0, #32
 80000b0:	0805      	lsrs	r5, r0, #32
 80000b2:	0800      	lsrs	r0, r0, #32
 80000b4:	0805      	lsrs	r5, r0, #32
 80000b6:	0800      	lsrs	r0, r0, #32
 80000b8:	0805      	lsrs	r5, r0, #32
 80000ba:	0800      	lsrs	r0, r0, #32
 80000bc:	0805      	lsrs	r5, r0, #32
 80000be:	0800      	lsrs	r0, r0, #32
 80000c0:	0805      	lsrs	r5, r0, #32
 80000c2:	0800      	lsrs	r0, r0, #32
 80000c4:	0805      	lsrs	r5, r0, #32
 80000c6:	0800      	lsrs	r0, r0, #32
 80000c8:	0805      	lsrs	r5, r0, #32
 80000ca:	0800      	lsrs	r0, r0, #32
 80000cc:	0805      	lsrs	r5, r0, #32
 80000ce:	0800      	lsrs	r0, r0, #32
 80000d0:	0805      	lsrs	r5, r0, #32
 80000d2:	0800      	lsrs	r0, r0, #32
 80000d4:	0805      	lsrs	r5, r0, #32
 80000d6:	0800      	lsrs	r0, r0, #32
 80000d8:	0805      	lsrs	r5, r0, #32
 80000da:	0800      	lsrs	r0, r0, #32
 80000dc:	0805      	lsrs	r5, r0, #32
 80000de:	0800      	lsrs	r0, r0, #32
 80000e0:	0805      	lsrs	r5, r0, #32
 80000e2:	0800      	lsrs	r0, r0, #32
 80000e4:	0805      	lsrs	r5, r0, #32
 80000e6:	0800      	lsrs	r0, r0, #32
 80000e8:	0805      	lsrs	r5, r0, #32
 80000ea:	0800      	lsrs	r0, r0, #32
	...
 8000108:	f85f f108 	ldr.w	pc, [pc, #-264]	@ 0x8000004
 800010c:	b510      	push	{r4, lr}
 800010e:	4c05      	ldr	r4, [pc, #20]	@ (0x8000124)
 8000110:	7823      	ldrb	r3, [r4, #0]
 8000112:	b933      	cbnz	r3, 0x8000122
 8000114:	4b04      	ldr	r3, [pc, #16]	@ (0x8000128)
 8000116:	b113      	cbz	r3, 0x800011e
 8000118:	4804      	ldr	r0, [pc, #16]	@ (0x800012c)
 800011a:	f3af 8000 	nop.w
 800011e:	2301      	movs	r3, #1
 8000120:	7023      	strb	r3, [r4, #0]
 8000122:	bd10      	pop	{r4, pc}
 8000124:	0068      	lsls	r0, r5, #1
 8000126:	2000      	movs	r0, #0
 8000128:	0000      	movs	r0, r0
 800012a:	0000      	movs	r0, r0
 800012c:	2674      	movs	r6, #116	@ 0x74
 800012e:	0800      	lsrs	r0, r0, #32
 8000130:	b508      	push	{r3, lr}
 8000132:	4b03      	ldr	r3, [pc, #12]	@ (0x8000140)
 8000134:	b11b      	cbz	r3, 0x800013e
 8000136:	4903      	ldr	r1, [pc, #12]	@ (0x8000144)
 8000138:	4803      	ldr	r0, [pc, #12]	@ (0x8000148)
 800013a:	f3af 8000 	nop.w
 800013e:	bd08      	pop	{r3, pc}
 8000140:	0000      	movs	r0, r0
 8000142:	0000      	movs	r0, r0
 8000144:	006c      	lsls	r4, r5, #1
 8000146:	2000      	movs	r0, #0
 8000148:	2674      	movs	r6, #116	@ 0x74
 800014a:	0800      	lsrs	r0, r0, #32
 800014c:	4a0f      	ldr	r2, [pc, #60]	@ (0x800018c)
 800014e:	f8d2 30fc 	ldr.w	r3, [r2, #252]	@ 0xfc
 8000152:	f013 7380 	ands.w	r3, r3, #16777216	@ 0x1000000
 8000156:	d10c      	bne.n	0x8000172
 8000158:	f8d2 10fc 	ldr.w	r1, [r2, #252]	@ 0xfc
 800015c:	f041 7180 	orr.w	r1, r1, #16777216	@ 0x1000000
 8000160:	f8c2 10fc 	str.w	r1, [r2, #252]	@ 0xfc
 8000164:	f5a2 425d 	sub.w	r2, r2, #56576	@ 0xdd00
 8000168:	6053      	str	r3, [r2, #4]
 800016a:	6813      	ldr	r3, [r2, #0]
 800016c:	f043 0301 	orr.w	r3, r3, #1
 8000170:	6013      	str	r3, [r2, #0]
 8000172:	4b07      	ldr	r3, [pc, #28]	@ (0x8000190)
 8000174:	4a07      	ldr	r2, [pc, #28]	@ (0x8000194)
 8000176:	681b      	ldr	r3, [r3, #0]
 8000178:	fbb3 f3f2 	udiv	r3, r3, r2
 800017c:	4a06      	ldr	r2, [pc, #24]	@ (0x8000198)
 800017e:	4358      	muls	r0, r3
 8000180:	6851      	ldr	r1, [r2, #4]
 8000182:	6853      	ldr	r3, [r2, #4]
 8000184:	1a5b      	subs	r3, r3, r1
 8000186:	4283      	cmp	r3, r0
 8000188:	d3fb      	bcc.n	0x8000182
 800018a:	4770      	bx	lr
 800018c:	ed00 e000 	stc	0, cr14, [r0, #-0]
 8000190:	0000      	movs	r0, r0
 8000192:	2000      	movs	r0, #0
 8000194:	4240      	negs	r0, r0
 8000196:	000f      	movs	r7, r1
 8000198:	1000      	asrs	r0, r0, #32
 800019a:	e000      	b.n	0x800019e
 800019c:	2801      	cmp	r0, #1
 800019e:	f081 0201 	eor.w	r2, r1, #1
 80001a2:	d006      	beq.n	0x80001b2
 80001a4:	2802      	cmp	r0, #2
 80001a6:	d006      	beq.n	0x80001b6
 80001a8:	b938      	cbnz	r0, 0x80001ba
 80001aa:	2101      	movs	r1, #1
 80001ac:	4803      	ldr	r0, [pc, #12]	@ (0x80001bc)
 80001ae:	f001 b8ef 	b.w	0x8001390
 80001b2:	2102      	movs	r1, #2
 80001b4:	e7fa      	b.n	0x80001ac
 80001b6:	2104      	movs	r1, #4
 80001b8:	e7f8      	b.n	0x80001ac
 80001ba:	4770      	bx	lr
 80001bc:	0c00      	lsrs	r0, r0, #16
 80001be:	4001      	ands	r1, r0
 80001c0:	b530      	push	{r4, r5, lr}
 80001c2:	b095      	sub	sp, #84	@ 0x54
 80001c4:	2224      	movs	r2, #36	@ 0x24
 80001c6:	2100      	movs	r1, #0
 80001c8:	a80b      	add	r0, sp, #44	@ 0x2c
 80001ca:	f001 fecd 	bl	0x8001f68
 80001ce:	2214      	movs	r2, #20
 80001d0:	2510      	movs	r5, #16
 80001d2:	2100      	movs	r1, #0
 80001d4:	eb0d 0002 	add.w	r0, sp, r2
 80001d8:	f001 fec6 	bl	0x8001f68
 80001dc:	2100      	movs	r1, #0
 80001de:	462a      	mov	r2, r5
 80001e0:	a801      	add	r0, sp, #4
 80001e2:	f001 fec1 	bl	0x8001f68
 80001e6:	2402      	movs	r4, #2
 80001e8:	2301      	movs	r3, #1
 80001ea:	a80a      	add	r0, sp, #40	@ 0x28
 80001ec:	e9cd 350e 	strd	r3, r5, [sp, #56]	@ 0x38
 80001f0:	940a      	str	r4, [sp, #40]	@ 0x28
 80001f2:	f001 f8d3 	bl	0x800139c
 80001f6:	4601      	mov	r1, r0
 80001f8:	b108      	cbz	r0, 0x80001fe
 80001fa:	b672      	cpsid	i
 80001fc:	e7fe      	b.n	0x80001fc
 80001fe:	230f      	movs	r3, #15
 8000200:	e9cd 0007 	strd	r0, r0, [sp, #28]
 8000204:	e9cd 3005 	strd	r3, r0, [sp, #20]
 8000208:	9009      	str	r0, [sp, #36]	@ 0x24
 800020a:	a805      	add	r0, sp, #20
 800020c:	f001 fa88 	bl	0x8001720
 8000210:	b108      	cbz	r0, 0x8000216
 8000212:	b672      	cpsid	i
 8000214:	e7fe      	b.n	0x8000214
 8000216:	9003      	str	r0, [sp, #12]
 8000218:	a801      	add	r0, sp, #4
 800021a:	9401      	str	r4, [sp, #4]
 800021c:	f001 fb2c 	bl	0x8001878
 8000220:	b108      	cbz	r0, 0x8000226
 8000222:	b672      	cpsid	i
 8000224:	e7fe      	b.n	0x8000224
 8000226:	b015      	add	sp, #84	@ 0x54
 8000228:	bd30      	pop	{r4, r5, pc}
 800022a:	0000      	movs	r0, r0
 800022c:	2400      	movs	r4, #0
 800022e:	f04f 0910 	mov.w	r9, #16
 8000232:	e92d 4880 	stmdb	sp!, {r7, fp, lr}
 8000236:	f04f 0807 	mov.w	r8, #7
 800023a:	2701      	movs	r7, #1
 800023c:	2502      	movs	r5, #2
 800023e:	b097      	sub	sp, #92	@ 0x5c
 8000240:	e9cd 4404 	strd	r4, r4, [sp, #16]
 8000244:	f000 fb04 	bl	0x8000850
 8000248:	f7ff ffba 	bl	0x80001c0
 800024c:	464a      	mov	r2, r9
 800024e:	4621      	mov	r1, r4
 8000250:	a80c      	add	r0, sp, #48	@ 0x30
 8000252:	f001 fe89 	bl	0x8001f68
 8000256:	4b81      	ldr	r3, [pc, #516]	@ (0x800045c)
 8000258:	2107      	movs	r1, #7
 800025a:	699a      	ldr	r2, [r3, #24]
 800025c:	4880      	ldr	r0, [pc, #512]	@ (0x8000460)
 800025e:	f042 0220 	orr.w	r2, r2, #32
 8000262:	619a      	str	r2, [r3, #24]
 8000264:	699a      	ldr	r2, [r3, #24]
 8000266:	4e7f      	ldr	r6, [pc, #508]	@ (0x8000464)
 8000268:	f002 0220 	and.w	r2, r2, #32
 800026c:	9209      	str	r2, [sp, #36]	@ 0x24
 800026e:	9a09      	ldr	r2, [sp, #36]	@ 0x24
 8000270:	699a      	ldr	r2, [r3, #24]
 8000272:	f042 0204 	orr.w	r2, r2, #4
 8000276:	619a      	str	r2, [r3, #24]
 8000278:	699a      	ldr	r2, [r3, #24]
 800027a:	f002 0204 	and.w	r2, r2, #4
 800027e:	920a      	str	r2, [sp, #40]	@ 0x28
 8000280:	9a0a      	ldr	r2, [sp, #40]	@ 0x28
 8000282:	699a      	ldr	r2, [r3, #24]
 8000284:	f042 0208 	orr.w	r2, r2, #8
 8000288:	619a      	str	r2, [r3, #24]
 800028a:	699b      	ldr	r3, [r3, #24]
 800028c:	2201      	movs	r2, #1
 800028e:	f003 0308 	and.w	r3, r3, #8
 8000292:	930b      	str	r3, [sp, #44]	@ 0x2c
 8000294:	9b0b      	ldr	r3, [sp, #44]	@ 0x2c
 8000296:	f001 f87b 	bl	0x8001390
 800029a:	4871      	ldr	r0, [pc, #452]	@ (0x8000460)
 800029c:	a90c      	add	r1, sp, #48	@ 0x30
 800029e:	e9cd 870c 	strd	r8, r7, [sp, #48]	@ 0x30
 80002a2:	940e      	str	r4, [sp, #56]	@ 0x38
 80002a4:	950f      	str	r5, [sp, #60]	@ 0x3c
 80002a6:	f000 ff9f 	bl	0x80011e8
 80002aa:	4b6f      	ldr	r3, [pc, #444]	@ (0x8000468)
 80002ac:	4630      	mov	r0, r6
 80002ae:	6033      	str	r3, [r6, #0]
 80002b0:	f44f 2360 	mov.w	r3, #917504	@ 0xe0000
 80002b4:	e9cd 440c 	strd	r4, r4, [sp, #48]	@ 0x30
 80002b8:	940e      	str	r4, [sp, #56]	@ 0x38
 80002ba:	60b4      	str	r4, [r6, #8]
 80002bc:	7334      	strb	r4, [r6, #12]
 80002be:	7534      	strb	r4, [r6, #20]
 80002c0:	61f3      	str	r3, [r6, #28]
 80002c2:	6074      	str	r4, [r6, #4]
 80002c4:	6137      	str	r7, [r6, #16]
 80002c6:	f000 fcd1 	bl	0x8000c6c
 80002ca:	b108      	cbz	r0, 0x80002d0
 80002cc:	b672      	cpsid	i
 80002ce:	e7fe      	b.n	0x80002ce
 80002d0:	900e      	str	r0, [sp, #56]	@ 0x38
 80002d2:	a90c      	add	r1, sp, #48	@ 0x30
 80002d4:	4630      	mov	r0, r6
 80002d6:	e9cd 570c 	strd	r5, r7, [sp, #48]	@ 0x30
 80002da:	f000 fb85 	bl	0x80009e8
 80002de:	b108      	cbz	r0, 0x80002e4
 80002e0:	b672      	cpsid	i
 80002e2:	e7fe      	b.n	0x80002e2
 80002e4:	4d61      	ldr	r5, [pc, #388]	@ (0x800046c)
 80002e6:	4b62      	ldr	r3, [pc, #392]	@ (0x8000470)
 80002e8:	e9c5 0002 	strd	r0, r0, [r5, #8]
 80002ec:	e9c5 0004 	strd	r0, r0, [r5, #16]
 80002f0:	61a8      	str	r0, [r5, #24]
 80002f2:	83a8      	strh	r0, [r5, #28]
 80002f4:	4628      	mov	r0, r5
 80002f6:	e9c5 3900 	strd	r3, r9, [r5]
 80002fa:	f000 fdbf 	bl	0x8000e7c
 80002fe:	4603      	mov	r3, r0
 8000300:	b108      	cbz	r0, 0x8000306
 8000302:	b672      	cpsid	i
 8000304:	e7fe      	b.n	0x8000304
 8000306:	f44f 7282 	mov.w	r2, #260	@ 0x104
 800030a:	485a      	ldr	r0, [pc, #360]	@ (0x8000474)
 800030c:	f8df c168 	ldr.w	ip, [pc, #360]	@ 0x8000478
 8000310:	e9c0 3304 	strd	r3, r3, [r0, #16]
 8000314:	e9c0 c200 	strd	ip, r2, [r0]
 8000318:	f44f 4200 	mov.w	r2, #32768	@ 0x8000
 800031c:	e9c0 2302 	strd	r2, r3, [r0, #8]
 8000320:	f44f 7200 	mov.w	r2, #512	@ 0x200
 8000324:	e9c0 3308 	strd	r3, r3, [r0, #32]
 8000328:	e9c0 2306 	strd	r2, r3, [r0, #24]
 800032c:	6283      	str	r3, [r0, #40]	@ 0x28
 800032e:	230a      	movs	r3, #10
 8000330:	62c3      	str	r3, [r0, #44]	@ 0x2c
 8000332:	f001 fbf1 	bl	0x8001b18
 8000336:	4681      	mov	r9, r0
 8000338:	b108      	cbz	r0, 0x800033e
 800033a:	b672      	cpsid	i
 800033c:	e7fe      	b.n	0x800033c
 800033e:	463a      	mov	r2, r7
 8000340:	4641      	mov	r1, r8
 8000342:	4847      	ldr	r0, [pc, #284]	@ (0x8000460)
 8000344:	f001 f824 	bl	0x8001390
 8000348:	4630      	mov	r0, r6
 800034a:	f000 fd27 	bl	0x8000d9c
 800034e:	4649      	mov	r1, r9
 8000350:	221c      	movs	r2, #28
 8000352:	a80c      	add	r0, sp, #48	@ 0x30
 8000354:	f001 fe08 	bl	0x8001f68
 8000358:	230e      	movs	r3, #14
 800035a:	4628      	mov	r0, r5
 800035c:	a90c      	add	r1, sp, #48	@ 0x30
 800035e:	e9cd 7713 	strd	r7, r7, [sp, #76]	@ 0x4c
 8000362:	9315      	str	r3, [sp, #84]	@ 0x54
 8000364:	f000 fe05 	bl	0x8000f72
 8000368:	b108      	cbz	r0, 0x800036e
 800036a:	b672      	cpsid	i
 800036c:	e7fe      	b.n	0x800036c
 800036e:	4628      	mov	r0, r5
 8000370:	f000 fe6f 	bl	0x8001052
 8000374:	4841      	ldr	r0, [pc, #260]	@ (0x800047c)
 8000376:	f001 fdef 	bl	0x8001f58
 800037a:	2600      	movs	r6, #0
 800037c:	f647 77ff 	movw	r7, #32767	@ 0x7fff
 8000380:	46b1      	mov	r9, r6
 8000382:	46b0      	mov	r8, r6
 8000384:	4b3e      	ldr	r3, [pc, #248]	@ (0x8000480)
 8000386:	9603      	str	r6, [sp, #12]
 8000388:	9301      	str	r3, [sp, #4]
 800038a:	fa5f f389 	uxtb.w	r3, r9
 800038e:	9302      	str	r3, [sp, #8]
 8000390:	4b3c      	ldr	r3, [pc, #240]	@ (0x8000484)
 8000392:	f04f 0b00 	mov.w	fp, #0
 8000396:	f813 3009 	ldrb.w	r3, [r3, r9]
 800039a:	9306      	str	r3, [sp, #24]
 800039c:	e016      	b.n	0x80003cc
 800039e:	f1ba 0f1f 	cmp.w	sl, #31
 80003a2:	d97b      	bls.n	0x800049c
 80003a4:	4b38      	ldr	r3, [pc, #224]	@ (0x8000488)
 80003a6:	9a03      	ldr	r2, [sp, #12]
 80003a8:	f10b 0b01 	add.w	fp, fp, #1
 80003ac:	441a      	add	r2, r3
 80003ae:	9203      	str	r2, [sp, #12]
 80003b0:	9a01      	ldr	r2, [sp, #4]
 80003b2:	429a      	cmp	r2, r3
 80003b4:	9a04      	ldr	r2, [sp, #16]
 80003b6:	bfb8      	it	lt
 80003b8:	4652      	movlt	r2, sl
 80003ba:	9204      	str	r2, [sp, #16]
 80003bc:	9a01      	ldr	r2, [sp, #4]
 80003be:	bfb8      	it	lt
 80003c0:	461a      	movlt	r2, r3
 80003c2:	429f      	cmp	r7, r3
 80003c4:	bfc4      	itt	gt
 80003c6:	4654      	movgt	r4, sl
 80003c8:	461f      	movgt	r7, r3
 80003ca:	9201      	str	r2, [sp, #4]
 80003cc:	9b06      	ldr	r3, [sp, #24]
 80003ce:	fa5f fa8b 	uxtb.w	sl, fp
 80003d2:	4553      	cmp	r3, sl
 80003d4:	d8e3      	bhi.n	0x800039e
 80003d6:	f109 0901 	add.w	r9, r9, #1
 80003da:	44d8      	add	r8, fp
 80003dc:	f1b9 0f03 	cmp.w	r9, #3
 80003e0:	fa1f f888 	uxth.w	r8, r8
 80003e4:	d1d1      	bne.n	0x800038a
 80003e6:	f1b8 0f00 	cmp.w	r8, #0
 80003ea:	d004      	beq.n	0x80003f6
 80003ec:	9b03      	ldr	r3, [sp, #12]
 80003ee:	fb93 f3f8 	sdiv	r3, r3, r8
 80003f2:	b21b      	sxth	r3, r3
 80003f4:	9305      	str	r3, [sp, #20]
 80003f6:	2204      	movs	r2, #4
 80003f8:	4b24      	ldr	r3, [pc, #144]	@ (0x800048c)
 80003fa:	4925      	ldr	r1, [pc, #148]	@ (0x8000490)
 80003fc:	2000      	movs	r0, #0
 80003fe:	e9c3 1201 	strd	r1, r2, [r3, #4]
 8000402:	2208      	movs	r2, #8
 8000404:	e9c3 0203 	strd	r0, r2, [r3, #12]
 8000408:	f04f 0200 	mov.w	r2, #0
 800040c:	751a      	strb	r2, [r3, #20]
 800040e:	2201      	movs	r2, #1
 8000410:	210a      	movs	r1, #10
 8000412:	4b20      	ldr	r3, [pc, #128]	@ (0x8000494)
 8000414:	fb97 f7f1 	sdiv	r7, r7, r1
 8000418:	701a      	strb	r2, [r3, #0]
 800041a:	9a01      	ldr	r2, [sp, #4]
 800041c:	4618      	mov	r0, r3
 800041e:	fb92 f2f1 	sdiv	r2, r2, r1
 8000422:	709a      	strb	r2, [r3, #2]
 8000424:	9a05      	ldr	r2, [sp, #20]
 8000426:	705f      	strb	r7, [r3, #1]
 8000428:	fb92 f1f1 	sdiv	r1, r2, r1
 800042c:	9a04      	ldr	r2, [sp, #16]
 800042e:	70d9      	strb	r1, [r3, #3]
 8000430:	715a      	strb	r2, [r3, #5]
 8000432:	2100      	movs	r1, #0
 8000434:	2241      	movs	r2, #65	@ 0x41
 8000436:	711e      	strb	r6, [r3, #4]
 8000438:	719c      	strb	r4, [r3, #6]
 800043a:	f813 5b01 	ldrb.w	r5, [r3], #1
 800043e:	3101      	adds	r1, #1
 8000440:	b2c9      	uxtb	r1, r1
 8000442:	442a      	add	r2, r5
 8000444:	2907      	cmp	r1, #7
 8000446:	b2d2      	uxtb	r2, r2
 8000448:	d1f7      	bne.n	0x800043a
 800044a:	71c2      	strb	r2, [r0, #7]
 800044c:	4b12      	ldr	r3, [pc, #72]	@ (0x8000498)
 800044e:	4a11      	ldr	r2, [pc, #68]	@ (0x8000494)
 8000450:	490e      	ldr	r1, [pc, #56]	@ (0x800048c)
 8000452:	4806      	ldr	r0, [pc, #24]	@ (0x800046c)
 8000454:	f000 fe28 	bl	0x80010a8
 8000458:	e78f      	b.n	0x800037a
 800045a:	bf00      	nop
 800045c:	1000      	asrs	r0, r0, #32
 800045e:	4002      	ands	r2, r0
 8000460:	0c00      	lsrs	r0, r0, #16
 8000462:	4001      	ands	r1, r0
 8000464:	0128      	lsls	r0, r5, #4
 8000466:	2000      	movs	r0, #0
 8000468:	2400      	movs	r4, #0
 800046a:	4001      	ands	r1, r0
 800046c:	0100      	lsls	r0, r0, #4
 800046e:	2000      	movs	r0, #0
 8000470:	6400      	str	r0, [r0, #64]	@ 0x40
 8000472:	4000      	ands	r0, r0
 8000474:	00a8      	lsls	r0, r5, #2
 8000476:	2000      	movs	r0, #0
 8000478:	3000      	adds	r0, #0
 800047a:	4001      	ands	r1, r0
 800047c:	268c      	movs	r6, #140	@ 0x8c
 800047e:	0800      	lsrs	r0, r0, #32
 8000480:	8000      	strh	r0, [r0, #0]
 8000482:	ffff 26b2 	vqshlu.s64	d18, d18, #63	@ 0x3f
 8000486:	0800      	lsrs	r0, r0, #32
 8000488:	d8f1      	bhi.n	0x800046e
 800048a:	ffff 0090 	vshr.u64	d16, d0, #1
 800048e:	2000      	movs	r0, #0
 8000490:	f380 1839 			@ <UNDEFINED> instruction: 0xf3801839
 8000494:	0088      	lsls	r0, r1, #2
 8000496:	2000      	movs	r0, #0
 8000498:	0084      	lsls	r4, r0, #2
 800049a:	2000      	movs	r0, #0
 800049c:	2201      	movs	r2, #1
 800049e:	2107      	movs	r1, #7
 80004a0:	483b      	ldr	r0, [pc, #236]	@ (0x8000590)
 80004a2:	f000 ff75 	bl	0x8001390
 80004a6:	f00a 0307 	and.w	r3, sl, #7
 80004aa:	2101      	movs	r1, #1
 80004ac:	9802      	ldr	r0, [sp, #8]
 80004ae:	f88d 3030 	strb.w	r3, [sp, #48]	@ 0x30
 80004b2:	f7ff fe73 	bl	0x800019c
 80004b6:	200a      	movs	r0, #10
 80004b8:	f7ff fe48 	bl	0x800014c
 80004bc:	230a      	movs	r3, #10
 80004be:	2201      	movs	r2, #1
 80004c0:	a90c      	add	r1, sp, #48	@ 0x30
 80004c2:	4834      	ldr	r0, [pc, #208]	@ (0x8000594)
 80004c4:	f001 fb80 	bl	0x8001bc8
 80004c8:	200a      	movs	r0, #10
 80004ca:	f7ff fe3f 	bl	0x800014c
 80004ce:	2100      	movs	r1, #0
 80004d0:	9802      	ldr	r0, [sp, #8]
 80004d2:	f7ff fe63 	bl	0x800019c
 80004d6:	2101      	movs	r1, #1
 80004d8:	9802      	ldr	r0, [sp, #8]
 80004da:	f7ff fe5f 	bl	0x800019c
 80004de:	f44f 60af 	mov.w	r0, #1400	@ 0x578
 80004e2:	f7ff fe33 	bl	0x800014c
 80004e6:	482c      	ldr	r0, [pc, #176]	@ (0x8000598)
 80004e8:	f000 fb38 	bl	0x8000b5c
 80004ec:	f44f 75fa 	mov.w	r5, #500	@ 0x1f4
 80004f0:	2300      	movs	r3, #0
 80004f2:	2102      	movs	r1, #2
 80004f4:	4828      	ldr	r0, [pc, #160]	@ (0x8000598)
 80004f6:	9307      	str	r3, [sp, #28]
 80004f8:	f000 f9ce 	bl	0x8000898
 80004fc:	4826      	ldr	r0, [pc, #152]	@ (0x8000598)
 80004fe:	f000 fa6f 	bl	0x80009e0
 8000502:	3d01      	subs	r5, #1
 8000504:	9b07      	ldr	r3, [sp, #28]
 8000506:	b2ad      	uxth	r5, r5
 8000508:	4403      	add	r3, r0
 800050a:	2d00      	cmp	r5, #0
 800050c:	d1f1      	bne.n	0x80004f2
 800050e:	4822      	ldr	r0, [pc, #136]	@ (0x8000598)
 8000510:	9307      	str	r3, [sp, #28]
 8000512:	f000 fc29 	bl	0x8000d68
 8000516:	4629      	mov	r1, r5
 8000518:	9802      	ldr	r0, [sp, #8]
 800051a:	f7ff fe3f 	bl	0x800019c
 800051e:	f44f 72fa 	mov.w	r2, #500	@ 0x1f4
 8000522:	9b07      	ldr	r3, [sp, #28]
 8000524:	fbb3 fcf2 	udiv	ip, r3, r2
 8000528:	f640 43e4 	movw	r3, #3300	@ 0xce4
 800052c:	fa1f fc8c 	uxth.w	ip, ip
 8000530:	fb03 fc0c 	mul.w	ip, r3, ip
 8000534:	f640 73ff 	movw	r3, #4095	@ 0xfff
 8000538:	fbbc fcf3 	udiv	ip, ip, r3
 800053c:	4b17      	ldr	r3, [pc, #92]	@ (0x800059c)
 800053e:	fa1f f18c 	uxth.w	r1, ip
 8000542:	8818      	ldrh	r0, [r3, #0]
 8000544:	4281      	cmp	r1, r0
 8000546:	d31c      	bcc.n	0x8000582
 8000548:	889a      	ldrh	r2, [r3, #4]
 800054a:	4291      	cmp	r1, r2
 800054c:	d819      	bhi.n	0x8000582
 800054e:	4b13      	ldr	r3, [pc, #76]	@ (0x800059c)
 8000550:	ebac 0c00 	sub.w	ip, ip, r0
 8000554:	eb03 0185 	add.w	r1, r3, r5, lsl #2
 8000558:	eb03 0385 	add.w	r3, r3, r5, lsl #2
 800055c:	f9b1 1002 	ldrsh.w	r1, [r1, #2]
 8000560:	f9b3 3006 	ldrsh.w	r3, [r3, #6]
 8000564:	1a12      	subs	r2, r2, r0
 8000566:	1a5b      	subs	r3, r3, r1
 8000568:	fb0c f303 	mul.w	r3, ip, r3
 800056c:	fb93 f3f2 	sdiv	r3, r3, r2
 8000570:	4a0b      	ldr	r2, [pc, #44]	@ (0x80005a0)
 8000572:	440b      	add	r3, r1
 8000574:	b21b      	sxth	r3, r3
 8000576:	4293      	cmp	r3, r2
 8000578:	f6ff af15 	blt.w	0x80003a6
 800057c:	3601      	adds	r6, #1
 800057e:	b2f6      	uxtb	r6, r6
 8000580:	e711      	b.n	0x80003a6
 8000582:	3501      	adds	r5, #1
 8000584:	2d05      	cmp	r5, #5
 8000586:	f103 0304 	add.w	r3, r3, #4
 800058a:	d1da      	bne.n	0x8000542
 800058c:	e70a      	b.n	0x80003a4
 800058e:	bf00      	nop
 8000590:	0c00      	lsrs	r0, r0, #16
 8000592:	4001      	ands	r1, r0
 8000594:	00a8      	lsls	r0, r5, #2
 8000596:	2000      	movs	r0, #0
 8000598:	0128      	lsls	r0, r5, #4
 800059a:	2000      	movs	r0, #0
 800059c:	269a      	movs	r6, #154	@ 0x9a
 800059e:	0800      	lsrs	r0, r0, #32
 80005a0:	d905      	bls.n	0x80005ae
 80005a2:	ffff 4b0e 	vtbl.8	d20, {d15-d18}, d14
 80005a6:	b082      	sub	sp, #8
 80005a8:	699a      	ldr	r2, [r3, #24]
 80005aa:	f042 0201 	orr.w	r2, r2, #1
 80005ae:	619a      	str	r2, [r3, #24]
 80005b0:	699a      	ldr	r2, [r3, #24]
 80005b2:	f002 0201 	and.w	r2, r2, #1
 80005b6:	9200      	str	r2, [sp, #0]
 80005b8:	9a00      	ldr	r2, [sp, #0]
 80005ba:	69da      	ldr	r2, [r3, #28]
 80005bc:	f042 5280 	orr.w	r2, r2, #268435456	@ 0x10000000
 80005c0:	61da      	str	r2, [r3, #28]
 80005c2:	69db      	ldr	r3, [r3, #28]
 80005c4:	4a07      	ldr	r2, [pc, #28]	@ (0x80005e4)
 80005c6:	f003 5380 	and.w	r3, r3, #268435456	@ 0x10000000
 80005ca:	9301      	str	r3, [sp, #4]
 80005cc:	9b01      	ldr	r3, [sp, #4]
 80005ce:	6853      	ldr	r3, [r2, #4]
 80005d0:	f023 63e0 	bic.w	r3, r3, #117440512	@ 0x7000000
 80005d4:	f043 7300 	orr.w	r3, r3, #33554432	@ 0x2000000
 80005d8:	6053      	str	r3, [r2, #4]
 80005da:	b002      	add	sp, #8
 80005dc:	4770      	bx	lr
 80005de:	bf00      	nop
 80005e0:	1000      	asrs	r0, r0, #32
 80005e2:	4002      	ands	r2, r0
 80005e4:	0000      	movs	r0, r0
 80005e6:	4001      	ands	r1, r0
 80005e8:	b510      	push	{r4, lr}
 80005ea:	4604      	mov	r4, r0
 80005ec:	b086      	sub	sp, #24
 80005ee:	2210      	movs	r2, #16
 80005f0:	2100      	movs	r1, #0
 80005f2:	a802      	add	r0, sp, #8
 80005f4:	f001 fcb8 	bl	0x8001f68
 80005f8:	6822      	ldr	r2, [r4, #0]
 80005fa:	4b10      	ldr	r3, [pc, #64]	@ (0x800063c)
 80005fc:	429a      	cmp	r2, r3
 80005fe:	d11b      	bne.n	0x8000638
 8000600:	f503 436c 	add.w	r3, r3, #60416	@ 0xec00
 8000604:	699a      	ldr	r2, [r3, #24]
 8000606:	480e      	ldr	r0, [pc, #56]	@ (0x8000640)
 8000608:	f442 7200 	orr.w	r2, r2, #512	@ 0x200
 800060c:	619a      	str	r2, [r3, #24]
 800060e:	699a      	ldr	r2, [r3, #24]
 8000610:	a902      	add	r1, sp, #8
 8000612:	f402 7200 	and.w	r2, r2, #512	@ 0x200
 8000616:	9200      	str	r2, [sp, #0]
 8000618:	9a00      	ldr	r2, [sp, #0]
 800061a:	699a      	ldr	r2, [r3, #24]
 800061c:	f042 0204 	orr.w	r2, r2, #4
 8000620:	619a      	str	r2, [r3, #24]
 8000622:	699b      	ldr	r3, [r3, #24]
 8000624:	2204      	movs	r2, #4
 8000626:	f003 0304 	and.w	r3, r3, #4
 800062a:	9301      	str	r3, [sp, #4]
 800062c:	9b01      	ldr	r3, [sp, #4]
 800062e:	2303      	movs	r3, #3
 8000630:	e9cd 2302 	strd	r2, r3, [sp, #8]
 8000634:	f000 fdd8 	bl	0x80011e8
 8000638:	b006      	add	sp, #24
 800063a:	bd10      	pop	{r4, pc}
 800063c:	2400      	movs	r4, #0
 800063e:	4001      	ands	r1, r0
 8000640:	0800      	lsrs	r0, r0, #32
 8000642:	4001      	ands	r1, r0
 8000644:	b510      	push	{r4, lr}
 8000646:	4604      	mov	r4, r0
 8000648:	b086      	sub	sp, #24
 800064a:	2210      	movs	r2, #16
 800064c:	2100      	movs	r1, #0
 800064e:	a802      	add	r0, sp, #8
 8000650:	f001 fc8a 	bl	0x8001f68
 8000654:	6822      	ldr	r2, [r4, #0]
 8000656:	4b15      	ldr	r3, [pc, #84]	@ (0x80006ac)
 8000658:	429a      	cmp	r2, r3
 800065a:	d125      	bne.n	0x80006a8
 800065c:	f503 33d6 	add.w	r3, r3, #109568	@ 0x1ac00
 8000660:	69da      	ldr	r2, [r3, #28]
 8000662:	4813      	ldr	r0, [pc, #76]	@ (0x80006b0)
 8000664:	f042 7200 	orr.w	r2, r2, #33554432	@ 0x2000000
 8000668:	61da      	str	r2, [r3, #28]
 800066a:	69da      	ldr	r2, [r3, #28]
 800066c:	a902      	add	r1, sp, #8
 800066e:	f002 7200 	and.w	r2, r2, #33554432	@ 0x2000000
 8000672:	9200      	str	r2, [sp, #0]
 8000674:	9a00      	ldr	r2, [sp, #0]
 8000676:	699a      	ldr	r2, [r3, #24]
 8000678:	f042 0204 	orr.w	r2, r2, #4
 800067c:	619a      	str	r2, [r3, #24]
 800067e:	699b      	ldr	r3, [r3, #24]
 8000680:	f003 0304 	and.w	r3, r3, #4
 8000684:	9301      	str	r3, [sp, #4]
 8000686:	9b01      	ldr	r3, [sp, #4]
 8000688:	f44f 6300 	mov.w	r3, #2048	@ 0x800
 800068c:	9302      	str	r3, [sp, #8]
 800068e:	f000 fdab 	bl	0x80011e8
 8000692:	2302      	movs	r3, #2
 8000694:	f44f 5280 	mov.w	r2, #4096	@ 0x1000
 8000698:	e9cd 2302 	strd	r2, r3, [sp, #8]
 800069c:	2303      	movs	r3, #3
 800069e:	4804      	ldr	r0, [pc, #16]	@ (0x80006b0)
 80006a0:	a902      	add	r1, sp, #8
 80006a2:	9305      	str	r3, [sp, #20]
 80006a4:	f000 fda0 	bl	0x80011e8
 80006a8:	b006      	add	sp, #24
 80006aa:	bd10      	pop	{r4, pc}
 80006ac:	6400      	str	r0, [r0, #64]	@ 0x40
 80006ae:	4000      	ands	r0, r0
 80006b0:	0800      	lsrs	r0, r0, #32
 80006b2:	4001      	ands	r1, r0
 80006b4:	b510      	push	{r4, lr}
 80006b6:	4604      	mov	r4, r0
 80006b8:	b086      	sub	sp, #24
 80006ba:	2210      	movs	r2, #16
 80006bc:	2100      	movs	r1, #0
 80006be:	a802      	add	r0, sp, #8
 80006c0:	f001 fc52 	bl	0x8001f68
 80006c4:	6822      	ldr	r2, [r4, #0]
 80006c6:	4b11      	ldr	r3, [pc, #68]	@ (0x800070c)
 80006c8:	429a      	cmp	r2, r3
 80006ca:	d11d      	bne.n	0x8000708
 80006cc:	f503 4360 	add.w	r3, r3, #57344	@ 0xe000
 80006d0:	699a      	ldr	r2, [r3, #24]
 80006d2:	480f      	ldr	r0, [pc, #60]	@ (0x8000710)
 80006d4:	f442 5280 	orr.w	r2, r2, #4096	@ 0x1000
 80006d8:	619a      	str	r2, [r3, #24]
 80006da:	699a      	ldr	r2, [r3, #24]
 80006dc:	a902      	add	r1, sp, #8
 80006de:	f402 5280 	and.w	r2, r2, #4096	@ 0x1000
 80006e2:	9200      	str	r2, [sp, #0]
 80006e4:	9a00      	ldr	r2, [sp, #0]
 80006e6:	699a      	ldr	r2, [r3, #24]
 80006e8:	f042 0204 	orr.w	r2, r2, #4
 80006ec:	619a      	str	r2, [r3, #24]
 80006ee:	699b      	ldr	r3, [r3, #24]
 80006f0:	22a0      	movs	r2, #160	@ 0xa0
 80006f2:	f003 0304 	and.w	r3, r3, #4
 80006f6:	9301      	str	r3, [sp, #4]
 80006f8:	9b01      	ldr	r3, [sp, #4]
 80006fa:	2302      	movs	r3, #2
 80006fc:	e9cd 2302 	strd	r2, r3, [sp, #8]
 8000700:	2303      	movs	r3, #3
 8000702:	9305      	str	r3, [sp, #20]
 8000704:	f000 fd70 	bl	0x80011e8
 8000708:	b006      	add	sp, #24
 800070a:	bd10      	pop	{r4, pc}
 800070c:	3000      	adds	r0, #0
 800070e:	4001      	ands	r1, r0
 8000710:	0800      	lsrs	r0, r0, #32
 8000712:	4001      	ands	r1, r0
 8000714:	e7fe      	b.n	0x8000714
 8000716:	e7fe      	b.n	0x8000716
 8000718:	e7fe      	b.n	0x8000718
 800071a:	e7fe      	b.n	0x800071a
 800071c:	e7fe      	b.n	0x800071c
 800071e:	4770      	bx	lr
 8000720:	4770      	bx	lr
 8000722:	4770      	bx	lr
 8000724:	f000 b8a6 	b.w	0x8000874
 8000728:	b570      	push	{r4, r5, r6, lr}
 800072a:	460d      	mov	r5, r1
 800072c:	4614      	mov	r4, r2
 800072e:	460e      	mov	r6, r1
 8000730:	1b73      	subs	r3, r6, r5
 8000732:	429c      	cmp	r4, r3
 8000734:	dc01      	bgt.n	0x800073a
 8000736:	4620      	mov	r0, r4
 8000738:	bd70      	pop	{r4, r5, r6, pc}
 800073a:	f3af 8000 	nop.w
 800073e:	f806 0b01 	strb.w	r0, [r6], #1
 8000742:	e7f5      	b.n	0x8000730
 8000744:	b570      	push	{r4, r5, r6, lr}
 8000746:	460d      	mov	r5, r1
 8000748:	4614      	mov	r4, r2
 800074a:	460e      	mov	r6, r1
 800074c:	1b73      	subs	r3, r6, r5
 800074e:	429c      	cmp	r4, r3
 8000750:	dc01      	bgt.n	0x8000756
 8000752:	4620      	mov	r0, r4
 8000754:	bd70      	pop	{r4, r5, r6, pc}
 8000756:	f816 0b01 	ldrb.w	r0, [r6], #1
 800075a:	f3af 8000 	nop.w
 800075e:	e7f5      	b.n	0x800074c
 8000760:	f04f 30ff 	mov.w	r0, #4294967295	@ 0xffffffff
 8000764:	4770      	bx	lr
 8000766:	f44f 5300 	mov.w	r3, #8192	@ 0x2000
 800076a:	2000      	movs	r0, #0
 800076c:	604b      	str	r3, [r1, #4]
 800076e:	4770      	bx	lr
 8000770:	2001      	movs	r0, #1
 8000772:	4770      	bx	lr
 8000774:	2000      	movs	r0, #0
 8000776:	4770      	bx	lr
 8000778:	4a0b      	ldr	r2, [pc, #44]	@ (0x80007a8)
 800077a:	4603      	mov	r3, r0
 800077c:	6811      	ldr	r1, [r2, #0]
 800077e:	b510      	push	{r4, lr}
 8000780:	b909      	cbnz	r1, 0x8000786
 8000782:	490a      	ldr	r1, [pc, #40]	@ (0x80007ac)
 8000784:	6011      	str	r1, [r2, #0]
 8000786:	6810      	ldr	r0, [r2, #0]
 8000788:	4909      	ldr	r1, [pc, #36]	@ (0x80007b0)
 800078a:	4c0a      	ldr	r4, [pc, #40]	@ (0x80007b4)
 800078c:	4403      	add	r3, r0
 800078e:	1b09      	subs	r1, r1, r4
 8000790:	428b      	cmp	r3, r1
 8000792:	d906      	bls.n	0x80007a2
 8000794:	f001 fbf0 	bl	0x8001f78
 8000798:	230c      	movs	r3, #12
 800079a:	6003      	str	r3, [r0, #0]
 800079c:	f04f 30ff 	mov.w	r0, #4294967295	@ 0xffffffff
 80007a0:	bd10      	pop	{r4, pc}
 80007a2:	6013      	str	r3, [r2, #0]
 80007a4:	e7fc      	b.n	0x80007a0
 80007a6:	bf00      	nop
 80007a8:	0158      	lsls	r0, r3, #5
 80007aa:	2000      	movs	r0, #0
 80007ac:	02b0      	lsls	r0, r6, #10
 80007ae:	2000      	movs	r0, #0
 80007b0:	5000      	str	r0, [r0, r0]
 80007b2:	2000      	movs	r0, #0
 80007b4:	0400      	lsls	r0, r0, #16
 80007b6:	0000      	movs	r0, r0
 80007b8:	4770      	bx	lr
 80007ba:	0000      	movs	r0, r0
 80007bc:	f7ff fffc 	bl	0x80007b8
 80007c0:	480b      	ldr	r0, [pc, #44]	@ (0x80007f0)
 80007c2:	490c      	ldr	r1, [pc, #48]	@ (0x80007f4)
 80007c4:	4a0c      	ldr	r2, [pc, #48]	@ (0x80007f8)
 80007c6:	2300      	movs	r3, #0
 80007c8:	e002      	b.n	0x80007d0
 80007ca:	58d4      	ldr	r4, [r2, r3]
 80007cc:	50c4      	str	r4, [r0, r3]
 80007ce:	3304      	adds	r3, #4
 80007d0:	18c4      	adds	r4, r0, r3
 80007d2:	428c      	cmp	r4, r1
 80007d4:	d3f9      	bcc.n	0x80007ca
 80007d6:	4a09      	ldr	r2, [pc, #36]	@ (0x80007fc)
 80007d8:	4c09      	ldr	r4, [pc, #36]	@ (0x8000800)
 80007da:	2300      	movs	r3, #0
 80007dc:	e001      	b.n	0x80007e2
 80007de:	6013      	str	r3, [r2, #0]
 80007e0:	3204      	adds	r2, #4
 80007e2:	42a2      	cmp	r2, r4
 80007e4:	d3fb      	bcc.n	0x80007de
 80007e6:	f001 fbcd 	bl	0x8001f84
 80007ea:	f7ff fd1f 	bl	0x800022c
 80007ee:	4770      	bx	lr
 80007f0:	0000      	movs	r0, r0
 80007f2:	2000      	movs	r0, #0
 80007f4:	0068      	lsls	r0, r5, #1
 80007f6:	2000      	movs	r0, #0
 80007f8:	26fc      	movs	r6, #252	@ 0xfc
 80007fa:	0800      	lsrs	r0, r0, #32
 80007fc:	0068      	lsls	r0, r5, #1
 80007fe:	2000      	movs	r0, #0
 8000800:	02ac      	lsls	r4, r5, #10
 8000802:	2000      	movs	r0, #0
 8000804:	e7fe      	b.n	0x8000804
 8000806:	0000      	movs	r0, r0
 8000808:	b538      	push	{r3, r4, r5, lr}
 800080a:	4b0e      	ldr	r3, [pc, #56]	@ (0x8000844)
 800080c:	4605      	mov	r5, r0
 800080e:	781a      	ldrb	r2, [r3, #0]
 8000810:	f44f 737a 	mov.w	r3, #1000	@ 0x3e8
 8000814:	fbb3 f3f2 	udiv	r3, r3, r2
 8000818:	4a0b      	ldr	r2, [pc, #44]	@ (0x8000848)
 800081a:	6810      	ldr	r0, [r2, #0]
 800081c:	fbb0 f0f3 	udiv	r0, r0, r3
 8000820:	f000 fcce 	bl	0x80011c0
 8000824:	4604      	mov	r4, r0
 8000826:	b958      	cbnz	r0, 0x8000840
 8000828:	2d0f      	cmp	r5, #15
 800082a:	d809      	bhi.n	0x8000840
 800082c:	4602      	mov	r2, r0
 800082e:	4629      	mov	r1, r5
 8000830:	f04f 30ff 	mov.w	r0, #4294967295	@ 0xffffffff
 8000834:	f000 fc94 	bl	0x8001160
 8000838:	4620      	mov	r0, r4
 800083a:	4b04      	ldr	r3, [pc, #16]	@ (0x800084c)
 800083c:	601d      	str	r5, [r3, #0]
 800083e:	bd38      	pop	{r3, r4, r5, pc}
 8000840:	2001      	movs	r0, #1
 8000842:	e7fc      	b.n	0x800083e
 8000844:	0004      	movs	r4, r0
 8000846:	2000      	movs	r0, #0
 8000848:	0000      	movs	r0, r0
 800084a:	2000      	movs	r0, #0
 800084c:	0008      	movs	r0, r1
 800084e:	2000      	movs	r0, #0
 8000850:	4a07      	ldr	r2, [pc, #28]	@ (0x8000870)
 8000852:	b508      	push	{r3, lr}
 8000854:	6813      	ldr	r3, [r2, #0]
 8000856:	2003      	movs	r0, #3
 8000858:	f043 0310 	orr.w	r3, r3, #16
 800085c:	6013      	str	r3, [r2, #0]
 800085e:	f000 fc6d 	bl	0x800113c
 8000862:	200f      	movs	r0, #15
 8000864:	f7ff ffd0 	bl	0x8000808
 8000868:	f7ff fe9c 	bl	0x80005a4
 800086c:	2000      	movs	r0, #0
 800086e:	bd08      	pop	{r3, pc}
 8000870:	2000      	movs	r0, #0
 8000872:	4002      	ands	r2, r0
 8000874:	4a03      	ldr	r2, [pc, #12]	@ (0x8000884)
 8000876:	4b04      	ldr	r3, [pc, #16]	@ (0x8000888)
 8000878:	6811      	ldr	r1, [r2, #0]
 800087a:	781b      	ldrb	r3, [r3, #0]
 800087c:	440b      	add	r3, r1
 800087e:	6013      	str	r3, [r2, #0]
 8000880:	4770      	bx	lr
 8000882:	bf00      	nop
 8000884:	015c      	lsls	r4, r3, #5
 8000886:	2000      	movs	r0, #0
 8000888:	0004      	movs	r4, r0
 800088a:	2000      	movs	r0, #0
 800088c:	4b01      	ldr	r3, [pc, #4]	@ (0x8000894)
 800088e:	6818      	ldr	r0, [r3, #0]
 8000890:	4770      	bx	lr
 8000892:	bf00      	nop
 8000894:	015c      	lsls	r4, r3, #5
 8000896:	2000      	movs	r0, #0
 8000898:	b5f7      	push	{r0, r1, r2, r4, r5, r6, r7, lr}
 800089a:	2600      	movs	r6, #0
 800089c:	4604      	mov	r4, r0
 800089e:	460d      	mov	r5, r1
 80008a0:	9601      	str	r6, [sp, #4]
 80008a2:	f7ff fff3 	bl	0x800088c
 80008a6:	6823      	ldr	r3, [r4, #0]
 80008a8:	4607      	mov	r7, r0
 80008aa:	689a      	ldr	r2, [r3, #8]
 80008ac:	05d1      	lsls	r1, r2, #23
 80008ae:	d508      	bpl.n	0x80008c2
 80008b0:	2001      	movs	r0, #1
 80008b2:	6aa3      	ldr	r3, [r4, #40]	@ 0x28
 80008b4:	f884 6024 	strb.w	r6, [r4, #36]	@ 0x24
 80008b8:	f043 0320 	orr.w	r3, r3, #32
 80008bc:	62a3      	str	r3, [r4, #40]	@ 0x28
 80008be:	b003      	add	sp, #12
 80008c0:	bdf0      	pop	{r4, r5, r6, r7, pc}
 80008c2:	685a      	ldr	r2, [r3, #4]
 80008c4:	05d2      	lsls	r2, r2, #23
 80008c6:	d403      	bmi.n	0x80008d0
 80008c8:	6adb      	ldr	r3, [r3, #44]	@ 0x2c
 80008ca:	f413 0f70 	tst.w	r3, #15728640	@ 0xf00000
 80008ce:	d03d      	beq.n	0x800094c
 80008d0:	4b3d      	ldr	r3, [pc, #244]	@ (0x80009c8)
 80008d2:	2002      	movs	r0, #2
 80008d4:	681e      	ldr	r6, [r3, #0]
 80008d6:	f001 f849 	bl	0x800196c
 80008da:	6823      	ldr	r3, [r4, #0]
 80008dc:	4a3b      	ldr	r2, [pc, #236]	@ (0x80009cc)
 80008de:	6919      	ldr	r1, [r3, #16]
 80008e0:	fbb6 f6f0 	udiv	r6, r6, r0
 80008e4:	4211      	tst	r1, r2
 80008e6:	4a3a      	ldr	r2, [pc, #232]	@ (0x80009d0)
 80008e8:	d151      	bne.n	0x800098e
 80008ea:	68d8      	ldr	r0, [r3, #12]
 80008ec:	4939      	ldr	r1, [pc, #228]	@ (0x80009d4)
 80008ee:	4208      	tst	r0, r1
 80008f0:	d14d      	bne.n	0x800098e
 80008f2:	6919      	ldr	r1, [r3, #16]
 80008f4:	4211      	tst	r1, r2
 80008f6:	d15b      	bne.n	0x80009b0
 80008f8:	68da      	ldr	r2, [r3, #12]
 80008fa:	4b37      	ldr	r3, [pc, #220]	@ (0x80009d8)
 80008fc:	421a      	tst	r2, r3
 80008fe:	bf0c      	ite	eq
 8000900:	2314      	moveq	r3, #20
 8000902:	2329      	movne	r3, #41	@ 0x29
 8000904:	435e      	muls	r6, r3
 8000906:	9b01      	ldr	r3, [sp, #4]
 8000908:	42b3      	cmp	r3, r6
 800090a:	d223      	bcs.n	0x8000954
 800090c:	1c6a      	adds	r2, r5, #1
 800090e:	d004      	beq.n	0x800091a
 8000910:	2d00      	cmp	r5, #0
 8000912:	d153      	bne.n	0x80009bc
 8000914:	9b01      	ldr	r3, [sp, #4]
 8000916:	42b3      	cmp	r3, r6
 8000918:	d30a      	bcc.n	0x8000930
 800091a:	9b01      	ldr	r3, [sp, #4]
 800091c:	3301      	adds	r3, #1
 800091e:	9301      	str	r3, [sp, #4]
 8000920:	e7f1      	b.n	0x8000906
 8000922:	1c6e      	adds	r6, r5, #1
 8000924:	d013      	beq.n	0x800094e
 8000926:	b965      	cbnz	r5, 0x8000942
 8000928:	6823      	ldr	r3, [r4, #0]
 800092a:	681b      	ldr	r3, [r3, #0]
 800092c:	0798      	lsls	r0, r3, #30
 800092e:	d40d      	bmi.n	0x800094c
 8000930:	6aa3      	ldr	r3, [r4, #40]	@ 0x28
 8000932:	2003      	movs	r0, #3
 8000934:	f043 0304 	orr.w	r3, r3, #4
 8000938:	62a3      	str	r3, [r4, #40]	@ 0x28
 800093a:	2300      	movs	r3, #0
 800093c:	f884 3024 	strb.w	r3, [r4, #36]	@ 0x24
 8000940:	e7bd      	b.n	0x80008be
 8000942:	f7ff ffa3 	bl	0x800088c
 8000946:	1bc0      	subs	r0, r0, r7
 8000948:	42a8      	cmp	r0, r5
 800094a:	d8ed      	bhi.n	0x8000928
 800094c:	6822      	ldr	r2, [r4, #0]
 800094e:	6813      	ldr	r3, [r2, #0]
 8000950:	0799      	lsls	r1, r3, #30
 8000952:	d5e6      	bpl.n	0x8000922
 8000954:	f06f 0312 	mvn.w	r3, #18
 8000958:	6822      	ldr	r2, [r4, #0]
 800095a:	6013      	str	r3, [r2, #0]
 800095c:	6aa3      	ldr	r3, [r4, #40]	@ 0x28
 800095e:	f443 7300 	orr.w	r3, r3, #512	@ 0x200
 8000962:	62a3      	str	r3, [r4, #40]	@ 0x28
 8000964:	6893      	ldr	r3, [r2, #8]
 8000966:	f403 2360 	and.w	r3, r3, #917504	@ 0xe0000
 800096a:	f5b3 2f60 	cmp.w	r3, #917504	@ 0xe0000
 800096e:	d10c      	bne.n	0x800098a
 8000970:	7b23      	ldrb	r3, [r4, #12]
 8000972:	b953      	cbnz	r3, 0x800098a
 8000974:	6aa3      	ldr	r3, [r4, #40]	@ 0x28
 8000976:	f423 7380 	bic.w	r3, r3, #256	@ 0x100
 800097a:	62a3      	str	r3, [r4, #40]	@ 0x28
 800097c:	6aa3      	ldr	r3, [r4, #40]	@ 0x28
 800097e:	04db      	lsls	r3, r3, #19
 8000980:	d403      	bmi.n	0x800098a
 8000982:	6aa3      	ldr	r3, [r4, #40]	@ 0x28
 8000984:	f043 0301 	orr.w	r3, r3, #1
 8000988:	62a3      	str	r3, [r4, #40]	@ 0x28
 800098a:	2000      	movs	r0, #0
 800098c:	e797      	b.n	0x80008be
 800098e:	6919      	ldr	r1, [r3, #16]
 8000990:	4211      	tst	r1, r2
 8000992:	d103      	bne.n	0x800099c
 8000994:	68d9      	ldr	r1, [r3, #12]
 8000996:	4a10      	ldr	r2, [pc, #64]	@ (0x80009d8)
 8000998:	4211      	tst	r1, r2
 800099a:	d00b      	beq.n	0x80009b4
 800099c:	6919      	ldr	r1, [r3, #16]
 800099e:	4a0f      	ldr	r2, [pc, #60]	@ (0x80009dc)
 80009a0:	4211      	tst	r1, r2
 80009a2:	d109      	bne.n	0x80009b8
 80009a4:	68db      	ldr	r3, [r3, #12]
 80009a6:	4213      	tst	r3, r2
 80009a8:	bf0c      	ite	eq
 80009aa:	2354      	moveq	r3, #84	@ 0x54
 80009ac:	23fc      	movne	r3, #252	@ 0xfc
 80009ae:	e7a9      	b.n	0x8000904
 80009b0:	2329      	movs	r3, #41	@ 0x29
 80009b2:	e7a7      	b.n	0x8000904
 80009b4:	2354      	movs	r3, #84	@ 0x54
 80009b6:	e7a5      	b.n	0x8000904
 80009b8:	23fc      	movs	r3, #252	@ 0xfc
 80009ba:	e7a3      	b.n	0x8000904
 80009bc:	f7ff ff66 	bl	0x800088c
 80009c0:	1bc0      	subs	r0, r0, r7
 80009c2:	42a8      	cmp	r0, r5
 80009c4:	d8a6      	bhi.n	0x8000914
 80009c6:	e7a8      	b.n	0x800091a
 80009c8:	0000      	movs	r0, r0
 80009ca:	2000      	movs	r0, #0
 80009cc:	4924      	ldr	r1, [pc, #144]	@ (0x8000a60)
 80009ce:	2492      	movs	r4, #146	@ 0x92
 80009d0:	2492      	movs	r4, #146	@ 0x92
 80009d2:	1249      	asrs	r1, r1, #9
 80009d4:	4924      	ldr	r1, [pc, #144]	@ (0x8000a68)
 80009d6:	0092      	lsls	r2, r2, #2
 80009d8:	2492      	movs	r4, #146	@ 0x92
 80009da:	0049      	lsls	r1, r1, #1
 80009dc:	9249      	str	r2, [sp, #292]	@ 0x124
 80009de:	0024      	movs	r4, r4
 80009e0:	6803      	ldr	r3, [r0, #0]
 80009e2:	6cd8      	ldr	r0, [r3, #76]	@ 0x4c
 80009e4:	4770      	bx	lr
 80009e6:	0000      	movs	r0, r0
 80009e8:	2300      	movs	r3, #0
 80009ea:	b573      	push	{r0, r1, r4, r5, r6, lr}
 80009ec:	9301      	str	r3, [sp, #4]
 80009ee:	f890 3024 	ldrb.w	r3, [r0, #36]	@ 0x24
 80009f2:	4604      	mov	r4, r0
 80009f4:	2b01      	cmp	r3, #1
 80009f6:	d06c      	beq.n	0x8000ad2
 80009f8:	2301      	movs	r3, #1
 80009fa:	f880 3024 	strb.w	r3, [r0, #36]	@ 0x24
 80009fe:	684d      	ldr	r5, [r1, #4]
 8000a00:	6802      	ldr	r2, [r0, #0]
 8000a02:	2d06      	cmp	r5, #6
 8000a04:	6808      	ldr	r0, [r1, #0]
 8000a06:	eb05 0385 	add.w	r3, r5, r5, lsl #2
 8000a0a:	d822      	bhi.n	0x8000a52
 8000a0c:	261f      	movs	r6, #31
 8000a0e:	6b55      	ldr	r5, [r2, #52]	@ 0x34
 8000a10:	3b05      	subs	r3, #5
 8000a12:	409e      	lsls	r6, r3
 8000a14:	ea25 0506 	bic.w	r5, r5, r6
 8000a18:	fa00 f303 	lsl.w	r3, r0, r3
 8000a1c:	432b      	orrs	r3, r5
 8000a1e:	6353      	str	r3, [r2, #52]	@ 0x34
 8000a20:	2809      	cmp	r0, #9
 8000a22:	688b      	ldr	r3, [r1, #8]
 8000a24:	eb00 0540 	add.w	r5, r0, r0, lsl #1
 8000a28:	f04f 0107 	mov.w	r1, #7
 8000a2c:	d929      	bls.n	0x8000a82
 8000a2e:	68d6      	ldr	r6, [r2, #12]
 8000a30:	3d1e      	subs	r5, #30
 8000a32:	40a9      	lsls	r1, r5
 8000a34:	ea26 0101 	bic.w	r1, r6, r1
 8000a38:	40ab      	lsls	r3, r5
 8000a3a:	430b      	orrs	r3, r1
 8000a3c:	60d3      	str	r3, [r2, #12]
 8000a3e:	f1a0 0310 	sub.w	r3, r0, #16
 8000a42:	2b01      	cmp	r3, #1
 8000a44:	d925      	bls.n	0x8000a92
 8000a46:	2000      	movs	r0, #0
 8000a48:	2300      	movs	r3, #0
 8000a4a:	f884 3024 	strb.w	r3, [r4, #36]	@ 0x24
 8000a4e:	b002      	add	sp, #8
 8000a50:	bd70      	pop	{r4, r5, r6, pc}
 8000a52:	2d0c      	cmp	r5, #12
 8000a54:	f04f 051f 	mov.w	r5, #31
 8000a58:	d809      	bhi.n	0x8000a6e
 8000a5a:	6b16      	ldr	r6, [r2, #48]	@ 0x30
 8000a5c:	3b23      	subs	r3, #35	@ 0x23
 8000a5e:	409d      	lsls	r5, r3
 8000a60:	ea26 0505 	bic.w	r5, r6, r5
 8000a64:	fa00 f303 	lsl.w	r3, r0, r3
 8000a68:	432b      	orrs	r3, r5
 8000a6a:	6313      	str	r3, [r2, #48]	@ 0x30
 8000a6c:	e7d8      	b.n	0x8000a20
 8000a6e:	6ad6      	ldr	r6, [r2, #44]	@ 0x2c
 8000a70:	3b41      	subs	r3, #65	@ 0x41
 8000a72:	409d      	lsls	r5, r3
 8000a74:	ea26 0505 	bic.w	r5, r6, r5
 8000a78:	fa00 f303 	lsl.w	r3, r0, r3
 8000a7c:	432b      	orrs	r3, r5
 8000a7e:	62d3      	str	r3, [r2, #44]	@ 0x2c
 8000a80:	e7ce      	b.n	0x8000a20
 8000a82:	6910      	ldr	r0, [r2, #16]
 8000a84:	40a9      	lsls	r1, r5
 8000a86:	ea20 0101 	bic.w	r1, r0, r1
 8000a8a:	40ab      	lsls	r3, r5
 8000a8c:	430b      	orrs	r3, r1
 8000a8e:	6113      	str	r3, [r2, #16]
 8000a90:	e7d9      	b.n	0x8000a46
 8000a92:	4b11      	ldr	r3, [pc, #68]	@ (0x8000ad8)
 8000a94:	429a      	cmp	r2, r3
 8000a96:	d116      	bne.n	0x8000ac6
 8000a98:	6893      	ldr	r3, [r2, #8]
 8000a9a:	021b      	lsls	r3, r3, #8
 8000a9c:	d4d3      	bmi.n	0x8000a46
 8000a9e:	6893      	ldr	r3, [r2, #8]
 8000aa0:	2810      	cmp	r0, #16
 8000aa2:	f443 0300 	orr.w	r3, r3, #8388608	@ 0x800000
 8000aa6:	6093      	str	r3, [r2, #8]
 8000aa8:	d1cd      	bne.n	0x8000a46
 8000aaa:	4b0c      	ldr	r3, [pc, #48]	@ (0x8000adc)
 8000aac:	4a0c      	ldr	r2, [pc, #48]	@ (0x8000ae0)
 8000aae:	681b      	ldr	r3, [r3, #0]
 8000ab0:	fbb3 f3f2 	udiv	r3, r3, r2
 8000ab4:	220a      	movs	r2, #10
 8000ab6:	4353      	muls	r3, r2
 8000ab8:	9301      	str	r3, [sp, #4]
 8000aba:	9b01      	ldr	r3, [sp, #4]
 8000abc:	2b00      	cmp	r3, #0
 8000abe:	d0c2      	beq.n	0x8000a46
 8000ac0:	9b01      	ldr	r3, [sp, #4]
 8000ac2:	3b01      	subs	r3, #1
 8000ac4:	e7f8      	b.n	0x8000ab8
 8000ac6:	6aa3      	ldr	r3, [r4, #40]	@ 0x28
 8000ac8:	2001      	movs	r0, #1
 8000aca:	f043 0320 	orr.w	r3, r3, #32
 8000ace:	62a3      	str	r3, [r4, #40]	@ 0x28
 8000ad0:	e7ba      	b.n	0x8000a48
 8000ad2:	2002      	movs	r0, #2
 8000ad4:	e7bb      	b.n	0x8000a4e
 8000ad6:	bf00      	nop
 8000ad8:	2400      	movs	r4, #0
 8000ada:	4001      	ands	r1, r0
 8000adc:	0000      	movs	r0, r0
 8000ade:	2000      	movs	r0, #0
 8000ae0:	4240      	negs	r0, r0
 8000ae2:	000f      	movs	r7, r1
 8000ae4:	2300      	movs	r3, #0
 8000ae6:	b537      	push	{r0, r1, r2, r4, r5, lr}
 8000ae8:	9301      	str	r3, [sp, #4]
 8000aea:	6803      	ldr	r3, [r0, #0]
 8000aec:	4604      	mov	r4, r0
 8000aee:	689a      	ldr	r2, [r3, #8]
 8000af0:	07d2      	lsls	r2, r2, #31
 8000af2:	d502      	bpl.n	0x8000afa
 8000af4:	2000      	movs	r0, #0
 8000af6:	b003      	add	sp, #12
 8000af8:	bd30      	pop	{r4, r5, pc}
 8000afa:	689a      	ldr	r2, [r3, #8]
 8000afc:	f042 0201 	orr.w	r2, r2, #1
 8000b00:	609a      	str	r2, [r3, #8]
 8000b02:	4b14      	ldr	r3, [pc, #80]	@ (0x8000b54)
 8000b04:	4a14      	ldr	r2, [pc, #80]	@ (0x8000b58)
 8000b06:	681b      	ldr	r3, [r3, #0]
 8000b08:	fbb3 f3f2 	udiv	r3, r3, r2
 8000b0c:	9301      	str	r3, [sp, #4]
 8000b0e:	9b01      	ldr	r3, [sp, #4]
 8000b10:	b9e3      	cbnz	r3, 0x8000b4c
 8000b12:	f7ff febb 	bl	0x800088c
 8000b16:	4605      	mov	r5, r0
 8000b18:	6823      	ldr	r3, [r4, #0]
 8000b1a:	689b      	ldr	r3, [r3, #8]
 8000b1c:	07db      	lsls	r3, r3, #31
 8000b1e:	d4e9      	bmi.n	0x8000af4
 8000b20:	f7ff feb4 	bl	0x800088c
 8000b24:	1b40      	subs	r0, r0, r5
 8000b26:	2802      	cmp	r0, #2
 8000b28:	d9f6      	bls.n	0x8000b18
 8000b2a:	6823      	ldr	r3, [r4, #0]
 8000b2c:	689b      	ldr	r3, [r3, #8]
 8000b2e:	f013 0301 	ands.w	r3, r3, #1
 8000b32:	d1f1      	bne.n	0x8000b18
 8000b34:	6aa2      	ldr	r2, [r4, #40]	@ 0x28
 8000b36:	2001      	movs	r0, #1
 8000b38:	f042 0210 	orr.w	r2, r2, #16
 8000b3c:	62a2      	str	r2, [r4, #40]	@ 0x28
 8000b3e:	6ae2      	ldr	r2, [r4, #44]	@ 0x2c
 8000b40:	f884 3024 	strb.w	r3, [r4, #36]	@ 0x24
 8000b44:	f042 0201 	orr.w	r2, r2, #1
 8000b48:	62e2      	str	r2, [r4, #44]	@ 0x2c
 8000b4a:	e7d4      	b.n	0x8000af6
 8000b4c:	9b01      	ldr	r3, [sp, #4]
 8000b4e:	3b01      	subs	r3, #1
 8000b50:	e7dc      	b.n	0x8000b0c
 8000b52:	bf00      	nop
 8000b54:	0000      	movs	r0, r0
 8000b56:	2000      	movs	r0, #0
 8000b58:	4240      	negs	r0, r0
 8000b5a:	000f      	movs	r7, r1
 8000b5c:	b510      	push	{r4, lr}
 8000b5e:	f890 3024 	ldrb.w	r3, [r0, #36]	@ 0x24
 8000b62:	4604      	mov	r4, r0
 8000b64:	2b01      	cmp	r3, #1
 8000b66:	d054      	beq.n	0x8000c12
 8000b68:	2301      	movs	r3, #1
 8000b6a:	f880 3024 	strb.w	r3, [r0, #36]	@ 0x24
 8000b6e:	f7ff ffb9 	bl	0x8000ae4
 8000b72:	2800      	cmp	r0, #0
 8000b74:	d149      	bne.n	0x8000c0a
 8000b76:	6aa3      	ldr	r3, [r4, #40]	@ 0x28
 8000b78:	4a27      	ldr	r2, [pc, #156]	@ (0x8000c18)
 8000b7a:	f423 7340 	bic.w	r3, r3, #768	@ 0x300
 8000b7e:	f023 0301 	bic.w	r3, r3, #1
 8000b82:	f443 7380 	orr.w	r3, r3, #256	@ 0x100
 8000b86:	62a3      	str	r3, [r4, #40]	@ 0x28
 8000b88:	6823      	ldr	r3, [r4, #0]
 8000b8a:	4293      	cmp	r3, r2
 8000b8c:	d104      	bne.n	0x8000b98
 8000b8e:	4923      	ldr	r1, [pc, #140]	@ (0x8000c1c)
 8000b90:	684a      	ldr	r2, [r1, #4]
 8000b92:	f412 2f70 	tst.w	r2, #983040	@ 0xf0000
 8000b96:	d12e      	bne.n	0x8000bf6
 8000b98:	6aa2      	ldr	r2, [r4, #40]	@ 0x28
 8000b9a:	f422 1280 	bic.w	r2, r2, #1048576	@ 0x100000
 8000b9e:	62a2      	str	r2, [r4, #40]	@ 0x28
 8000ba0:	685a      	ldr	r2, [r3, #4]
 8000ba2:	0552      	lsls	r2, r2, #21
 8000ba4:	bf41      	itttt	mi
 8000ba6:	6aa2      	ldrmi	r2, [r4, #40]	@ 0x28
 8000ba8:	f422 5240 	bicmi.w	r2, r2, #12288	@ 0x3000
 8000bac:	f442 5280 	orrmi.w	r2, r2, #4096	@ 0x1000
 8000bb0:	62a2      	strmi	r2, [r4, #40]	@ 0x28
 8000bb2:	6aa2      	ldr	r2, [r4, #40]	@ 0x28
 8000bb4:	f412 5280 	ands.w	r2, r2, #4096	@ 0x1000
 8000bb8:	bf1c      	itt	ne
 8000bba:	6ae2      	ldrne	r2, [r4, #44]	@ 0x2c
 8000bbc:	f022 0206 	bicne.w	r2, r2, #6
 8000bc0:	62e2      	str	r2, [r4, #44]	@ 0x2c
 8000bc2:	2200      	movs	r2, #0
 8000bc4:	f884 2024 	strb.w	r2, [r4, #36]	@ 0x24
 8000bc8:	f06f 0202 	mvn.w	r2, #2
 8000bcc:	601a      	str	r2, [r3, #0]
 8000bce:	689a      	ldr	r2, [r3, #8]
 8000bd0:	f402 2260 	and.w	r2, r2, #917504	@ 0xe0000
 8000bd4:	f5b2 2f60 	cmp.w	r2, #917504	@ 0xe0000
 8000bd8:	d113      	bne.n	0x8000c02
 8000bda:	4a0f      	ldr	r2, [pc, #60]	@ (0x8000c18)
 8000bdc:	4293      	cmp	r3, r2
 8000bde:	d105      	bne.n	0x8000bec
 8000be0:	f5a2 6280 	sub.w	r2, r2, #1024	@ 0x400
 8000be4:	6852      	ldr	r2, [r2, #4]
 8000be6:	f412 2f70 	tst.w	r2, #983040	@ 0xf0000
 8000bea:	d10a      	bne.n	0x8000c02
 8000bec:	689a      	ldr	r2, [r3, #8]
 8000bee:	f442 02a0 	orr.w	r2, r2, #5242880	@ 0x500000
 8000bf2:	609a      	str	r2, [r3, #8]
 8000bf4:	bd10      	pop	{r4, pc}
 8000bf6:	6aa2      	ldr	r2, [r4, #40]	@ 0x28
 8000bf8:	f442 1280 	orr.w	r2, r2, #1048576	@ 0x100000
 8000bfc:	62a2      	str	r2, [r4, #40]	@ 0x28
 8000bfe:	684a      	ldr	r2, [r1, #4]
 8000c00:	e7cf      	b.n	0x8000ba2
 8000c02:	689a      	ldr	r2, [r3, #8]
 8000c04:	f442 1280 	orr.w	r2, r2, #1048576	@ 0x100000
 8000c08:	e7f3      	b.n	0x8000bf2
 8000c0a:	2300      	movs	r3, #0
 8000c0c:	f884 3024 	strb.w	r3, [r4, #36]	@ 0x24
 8000c10:	e7f0      	b.n	0x8000bf4
 8000c12:	2002      	movs	r0, #2
 8000c14:	e7ee      	b.n	0x8000bf4
 8000c16:	bf00      	nop
 8000c18:	2800      	cmp	r0, #0
 8000c1a:	4001      	ands	r1, r0
 8000c1c:	2400      	movs	r4, #0
 8000c1e:	4001      	ands	r1, r0
 8000c20:	b538      	push	{r3, r4, r5, lr}
 8000c22:	6803      	ldr	r3, [r0, #0]
 8000c24:	4604      	mov	r4, r0
 8000c26:	689a      	ldr	r2, [r3, #8]
 8000c28:	07d1      	lsls	r1, r2, #31
 8000c2a:	d401      	bmi.n	0x8000c30
 8000c2c:	2000      	movs	r0, #0
 8000c2e:	bd38      	pop	{r3, r4, r5, pc}
 8000c30:	689a      	ldr	r2, [r3, #8]
 8000c32:	f022 0201 	bic.w	r2, r2, #1
 8000c36:	609a      	str	r2, [r3, #8]
 8000c38:	f7ff fe28 	bl	0x800088c
 8000c3c:	4605      	mov	r5, r0
 8000c3e:	6823      	ldr	r3, [r4, #0]
 8000c40:	689b      	ldr	r3, [r3, #8]
 8000c42:	07db      	lsls	r3, r3, #31
 8000c44:	d5f2      	bpl.n	0x8000c2c
 8000c46:	f7ff fe21 	bl	0x800088c
 8000c4a:	1b40      	subs	r0, r0, r5
 8000c4c:	2802      	cmp	r0, #2
 8000c4e:	d9f6      	bls.n	0x8000c3e
 8000c50:	6823      	ldr	r3, [r4, #0]
 8000c52:	689b      	ldr	r3, [r3, #8]
 8000c54:	07da      	lsls	r2, r3, #31
 8000c56:	d5f2      	bpl.n	0x8000c3e
 8000c58:	6aa3      	ldr	r3, [r4, #40]	@ 0x28
 8000c5a:	2001      	movs	r0, #1
 8000c5c:	f043 0310 	orr.w	r3, r3, #16
 8000c60:	62a3      	str	r3, [r4, #40]	@ 0x28
 8000c62:	6ae3      	ldr	r3, [r4, #44]	@ 0x2c
 8000c64:	f043 0301 	orr.w	r3, r3, #1
 8000c68:	62e3      	str	r3, [r4, #44]	@ 0x2c
 8000c6a:	e7e0      	b.n	0x8000c2e
 8000c6c:	b5f8      	push	{r3, r4, r5, r6, r7, lr}
 8000c6e:	4604      	mov	r4, r0
 8000c70:	2800      	cmp	r0, #0
 8000c72:	d06d      	beq.n	0x8000d50
 8000c74:	6a83      	ldr	r3, [r0, #40]	@ 0x28
 8000c76:	b923      	cbnz	r3, 0x8000c82
 8000c78:	62c3      	str	r3, [r0, #44]	@ 0x2c
 8000c7a:	f880 3024 	strb.w	r3, [r0, #36]	@ 0x24
 8000c7e:	f7ff fcb3 	bl	0x80005e8
 8000c82:	4620      	mov	r0, r4
 8000c84:	f7ff ffcc 	bl	0x8000c20
 8000c88:	6aa3      	ldr	r3, [r4, #40]	@ 0x28
 8000c8a:	f013 0310 	ands.w	r3, r3, #16
 8000c8e:	d161      	bne.n	0x8000d54
 8000c90:	2800      	cmp	r0, #0
 8000c92:	d15f      	bne.n	0x8000d54
 8000c94:	6aa2      	ldr	r2, [r4, #40]	@ 0x28
 8000c96:	6861      	ldr	r1, [r4, #4]
 8000c98:	f422 5288 	bic.w	r2, r2, #4352	@ 0x1100
 8000c9c:	f022 0202 	bic.w	r2, r2, #2
 8000ca0:	f042 0202 	orr.w	r2, r2, #2
 8000ca4:	69e5      	ldr	r5, [r4, #28]
 8000ca6:	68a6      	ldr	r6, [r4, #8]
 8000ca8:	62a2      	str	r2, [r4, #40]	@ 0x28
 8000caa:	7b22      	ldrb	r2, [r4, #12]
 8000cac:	4329      	orrs	r1, r5
 8000cae:	f5b6 7f80 	cmp.w	r6, #256	@ 0x100
 8000cb2:	ea41 0142 	orr.w	r1, r1, r2, lsl #1
 8000cb6:	d036      	beq.n	0x8000d26
 8000cb8:	1e77      	subs	r7, r6, #1
 8000cba:	427d      	negs	r5, r7
 8000cbc:	417d      	adcs	r5, r7
 8000cbe:	022d      	lsls	r5, r5, #8
 8000cc0:	7d27      	ldrb	r7, [r4, #20]
 8000cc2:	2f01      	cmp	r7, #1
 8000cc4:	d106      	bne.n	0x8000cd4
 8000cc6:	bb82      	cbnz	r2, 0x8000d2a
 8000cc8:	69a2      	ldr	r2, [r4, #24]
 8000cca:	3a01      	subs	r2, #1
 8000ccc:	ea45 3242 	orr.w	r2, r5, r2, lsl #13
 8000cd0:	f442 6500 	orr.w	r5, r2, #2048	@ 0x800
 8000cd4:	6822      	ldr	r2, [r4, #0]
 8000cd6:	f5b6 7f80 	cmp.w	r6, #256	@ 0x100
 8000cda:	6857      	ldr	r7, [r2, #4]
 8000cdc:	f427 4769 	bic.w	r7, r7, #59648	@ 0xe900
 8000ce0:	ea45 0507 	orr.w	r5, r5, r7
 8000ce4:	6055      	str	r5, [r2, #4]
 8000ce6:	6897      	ldr	r7, [r2, #8]
 8000ce8:	4d1d      	ldr	r5, [pc, #116]	@ (0x8000d60)
 8000cea:	ea05 0507 	and.w	r5, r5, r7
 8000cee:	ea45 0501 	orr.w	r5, r5, r1
 8000cf2:	6095      	str	r5, [r2, #8]
 8000cf4:	d001      	beq.n	0x8000cfa
 8000cf6:	2e01      	cmp	r6, #1
 8000cf8:	d102      	bne.n	0x8000d00
 8000cfa:	6923      	ldr	r3, [r4, #16]
 8000cfc:	3b01      	subs	r3, #1
 8000cfe:	051b      	lsls	r3, r3, #20
 8000d00:	6ad5      	ldr	r5, [r2, #44]	@ 0x2c
 8000d02:	f425 0570 	bic.w	r5, r5, #15728640	@ 0xf00000
 8000d06:	432b      	orrs	r3, r5
 8000d08:	62d3      	str	r3, [r2, #44]	@ 0x2c
 8000d0a:	6892      	ldr	r2, [r2, #8]
 8000d0c:	4b15      	ldr	r3, [pc, #84]	@ (0x8000d64)
 8000d0e:	4013      	ands	r3, r2
 8000d10:	4299      	cmp	r1, r3
 8000d12:	d113      	bne.n	0x8000d3c
 8000d14:	2300      	movs	r3, #0
 8000d16:	62e3      	str	r3, [r4, #44]	@ 0x2c
 8000d18:	6aa3      	ldr	r3, [r4, #40]	@ 0x28
 8000d1a:	f023 0303 	bic.w	r3, r3, #3
 8000d1e:	f043 0301 	orr.w	r3, r3, #1
 8000d22:	62a3      	str	r3, [r4, #40]	@ 0x28
 8000d24:	bdf8      	pop	{r3, r4, r5, r6, r7, pc}
 8000d26:	4635      	mov	r5, r6
 8000d28:	e7ca      	b.n	0x8000cc0
 8000d2a:	6aa2      	ldr	r2, [r4, #40]	@ 0x28
 8000d2c:	f042 0220 	orr.w	r2, r2, #32
 8000d30:	62a2      	str	r2, [r4, #40]	@ 0x28
 8000d32:	6ae2      	ldr	r2, [r4, #44]	@ 0x2c
 8000d34:	f042 0201 	orr.w	r2, r2, #1
 8000d38:	62e2      	str	r2, [r4, #44]	@ 0x2c
 8000d3a:	e7cb      	b.n	0x8000cd4
 8000d3c:	6aa3      	ldr	r3, [r4, #40]	@ 0x28
 8000d3e:	f023 0312 	bic.w	r3, r3, #18
 8000d42:	f043 0310 	orr.w	r3, r3, #16
 8000d46:	62a3      	str	r3, [r4, #40]	@ 0x28
 8000d48:	6ae3      	ldr	r3, [r4, #44]	@ 0x2c
 8000d4a:	f043 0301 	orr.w	r3, r3, #1
 8000d4e:	62e3      	str	r3, [r4, #44]	@ 0x2c
 8000d50:	2001      	movs	r0, #1
 8000d52:	e7e7      	b.n	0x8000d24
 8000d54:	6aa3      	ldr	r3, [r4, #40]	@ 0x28
 8000d56:	f043 0310 	orr.w	r3, r3, #16
 8000d5a:	62a3      	str	r3, [r4, #40]	@ 0x28
 8000d5c:	e7f8      	b.n	0x8000d50
 8000d5e:	bf00      	nop
 8000d60:	f7fd ffe1 	bl	0x7ffed26
 8000d64:	0efe      	lsrs	r6, r7, #27
 8000d66:	ff1f b510 	vqrshl.u16	d11, d0, d15
 8000d6a:	f890 3024 	ldrb.w	r3, [r0, #36]	@ 0x24
 8000d6e:	4604      	mov	r4, r0
 8000d70:	2b01      	cmp	r3, #1
 8000d72:	d011      	beq.n	0x8000d98
 8000d74:	2301      	movs	r3, #1
 8000d76:	f880 3024 	strb.w	r3, [r0, #36]	@ 0x24
 8000d7a:	f7ff ff51 	bl	0x8000c20
 8000d7e:	b938      	cbnz	r0, 0x8000d90
 8000d80:	6aa3      	ldr	r3, [r4, #40]	@ 0x28
 8000d82:	f423 5388 	bic.w	r3, r3, #4352	@ 0x1100
 8000d86:	f023 0301 	bic.w	r3, r3, #1
 8000d8a:	f043 0301 	orr.w	r3, r3, #1
 8000d8e:	62a3      	str	r3, [r4, #40]	@ 0x28
 8000d90:	2300      	movs	r3, #0
 8000d92:	f884 3024 	strb.w	r3, [r4, #36]	@ 0x24
 8000d96:	bd10      	pop	{r4, pc}
 8000d98:	2002      	movs	r0, #2
 8000d9a:	e7fc      	b.n	0x8000d96
 8000d9c:	2300      	movs	r3, #0
 8000d9e:	b573      	push	{r0, r1, r4, r5, r6, lr}
 8000da0:	9301      	str	r3, [sp, #4]
 8000da2:	f890 3024 	ldrb.w	r3, [r0, #36]	@ 0x24
 8000da6:	4604      	mov	r4, r0
 8000da8:	2b01      	cmp	r3, #1
 8000daa:	d062      	beq.n	0x8000e72
 8000dac:	2301      	movs	r3, #1
 8000dae:	f880 3024 	strb.w	r3, [r0, #36]	@ 0x24
 8000db2:	f7ff ff35 	bl	0x8000c20
 8000db6:	4620      	mov	r0, r4
 8000db8:	f7ff fe94 	bl	0x8000ae4
 8000dbc:	4605      	mov	r5, r0
 8000dbe:	2800      	cmp	r0, #0
 8000dc0:	d12f      	bne.n	0x8000e22
 8000dc2:	6aa3      	ldr	r3, [r4, #40]	@ 0x28
 8000dc4:	2002      	movs	r0, #2
 8000dc6:	f423 5388 	bic.w	r3, r3, #4352	@ 0x1100
 8000dca:	f023 0302 	bic.w	r3, r3, #2
 8000dce:	f043 0302 	orr.w	r3, r3, #2
 8000dd2:	62a3      	str	r3, [r4, #40]	@ 0x28
 8000dd4:	4b28      	ldr	r3, [pc, #160]	@ (0x8000e78)
 8000dd6:	681e      	ldr	r6, [r3, #0]
 8000dd8:	f000 fdc8 	bl	0x800196c
 8000ddc:	fbb6 f6f0 	udiv	r6, r6, r0
 8000de0:	0076      	lsls	r6, r6, #1
 8000de2:	9601      	str	r6, [sp, #4]
 8000de4:	9b01      	ldr	r3, [sp, #4]
 8000de6:	bb03      	cbnz	r3, 0x8000e2a
 8000de8:	6822      	ldr	r2, [r4, #0]
 8000dea:	6893      	ldr	r3, [r2, #8]
 8000dec:	f043 0308 	orr.w	r3, r3, #8
 8000df0:	6093      	str	r3, [r2, #8]
 8000df2:	f7ff fd4b 	bl	0x800088c
 8000df6:	4606      	mov	r6, r0
 8000df8:	6823      	ldr	r3, [r4, #0]
 8000dfa:	689a      	ldr	r2, [r3, #8]
 8000dfc:	0711      	lsls	r1, r2, #28
 8000dfe:	d418      	bmi.n	0x8000e32
 8000e00:	689a      	ldr	r2, [r3, #8]
 8000e02:	f042 0204 	orr.w	r2, r2, #4
 8000e06:	609a      	str	r2, [r3, #8]
 8000e08:	f7ff fd40 	bl	0x800088c
 8000e0c:	4606      	mov	r6, r0
 8000e0e:	6823      	ldr	r3, [r4, #0]
 8000e10:	689b      	ldr	r3, [r3, #8]
 8000e12:	075b      	lsls	r3, r3, #29
 8000e14:	d423      	bmi.n	0x8000e5e
 8000e16:	6aa3      	ldr	r3, [r4, #40]	@ 0x28
 8000e18:	f023 0303 	bic.w	r3, r3, #3
 8000e1c:	f043 0301 	orr.w	r3, r3, #1
 8000e20:	62a3      	str	r3, [r4, #40]	@ 0x28
 8000e22:	2300      	movs	r3, #0
 8000e24:	f884 3024 	strb.w	r3, [r4, #36]	@ 0x24
 8000e28:	e016      	b.n	0x8000e58
 8000e2a:	9b01      	ldr	r3, [sp, #4]
 8000e2c:	3b01      	subs	r3, #1
 8000e2e:	9301      	str	r3, [sp, #4]
 8000e30:	e7d8      	b.n	0x8000de4
 8000e32:	f7ff fd2b 	bl	0x800088c
 8000e36:	1b80      	subs	r0, r0, r6
 8000e38:	280a      	cmp	r0, #10
 8000e3a:	d9dd      	bls.n	0x8000df8
 8000e3c:	6823      	ldr	r3, [r4, #0]
 8000e3e:	689b      	ldr	r3, [r3, #8]
 8000e40:	0718      	lsls	r0, r3, #28
 8000e42:	d5d9      	bpl.n	0x8000df8
 8000e44:	6aa3      	ldr	r3, [r4, #40]	@ 0x28
 8000e46:	2501      	movs	r5, #1
 8000e48:	f023 0312 	bic.w	r3, r3, #18
 8000e4c:	f043 0310 	orr.w	r3, r3, #16
 8000e50:	62a3      	str	r3, [r4, #40]	@ 0x28
 8000e52:	2300      	movs	r3, #0
 8000e54:	f884 3024 	strb.w	r3, [r4, #36]	@ 0x24
 8000e58:	4628      	mov	r0, r5
 8000e5a:	b002      	add	sp, #8
 8000e5c:	bd70      	pop	{r4, r5, r6, pc}
 8000e5e:	f7ff fd15 	bl	0x800088c
 8000e62:	1b80      	subs	r0, r0, r6
 8000e64:	280a      	cmp	r0, #10
 8000e66:	d9d2      	bls.n	0x8000e0e
 8000e68:	6823      	ldr	r3, [r4, #0]
 8000e6a:	689b      	ldr	r3, [r3, #8]
 8000e6c:	075a      	lsls	r2, r3, #29
 8000e6e:	d5ce      	bpl.n	0x8000e0e
 8000e70:	e7e8      	b.n	0x8000e44
 8000e72:	2502      	movs	r5, #2
 8000e74:	e7f0      	b.n	0x8000e58
 8000e76:	bf00      	nop
 8000e78:	0000      	movs	r0, r0
 8000e7a:	2000      	movs	r0, #0
 8000e7c:	b538      	push	{r3, r4, r5, lr}
 8000e7e:	4604      	mov	r4, r0
 8000e80:	2800      	cmp	r0, #0
 8000e82:	d06e      	beq.n	0x8000f62
 8000e84:	f890 3020 	ldrb.w	r3, [r0, #32]
 8000e88:	b90b      	cbnz	r3, 0x8000e8e
 8000e8a:	f7ff fbdb 	bl	0x8000644
 8000e8e:	6822      	ldr	r2, [r4, #0]
 8000e90:	6813      	ldr	r3, [r2, #0]
 8000e92:	f043 0301 	orr.w	r3, r3, #1
 8000e96:	6013      	str	r3, [r2, #0]
 8000e98:	f7ff fcf8 	bl	0x800088c
 8000e9c:	4605      	mov	r5, r0
 8000e9e:	6823      	ldr	r3, [r4, #0]
 8000ea0:	685a      	ldr	r2, [r3, #4]
 8000ea2:	07d1      	lsls	r1, r2, #31
 8000ea4:	d551      	bpl.n	0x8000f4a
 8000ea6:	681a      	ldr	r2, [r3, #0]
 8000ea8:	f022 0202 	bic.w	r2, r2, #2
 8000eac:	601a      	str	r2, [r3, #0]
 8000eae:	f7ff fced 	bl	0x800088c
 8000eb2:	4605      	mov	r5, r0
 8000eb4:	6823      	ldr	r3, [r4, #0]
 8000eb6:	685a      	ldr	r2, [r3, #4]
 8000eb8:	0792      	lsls	r2, r2, #30
 8000eba:	d454      	bmi.n	0x8000f66
 8000ebc:	7e22      	ldrb	r2, [r4, #24]
 8000ebe:	2000      	movs	r0, #0
 8000ec0:	2a01      	cmp	r2, #1
 8000ec2:	681a      	ldr	r2, [r3, #0]
 8000ec4:	bf0c      	ite	eq
 8000ec6:	f042 0280 	orreq.w	r2, r2, #128	@ 0x80
 8000eca:	f022 0280 	bicne.w	r2, r2, #128	@ 0x80
 8000ece:	601a      	str	r2, [r3, #0]
 8000ed0:	7e62      	ldrb	r2, [r4, #25]
 8000ed2:	2a01      	cmp	r2, #1
 8000ed4:	681a      	ldr	r2, [r3, #0]
 8000ed6:	bf0c      	ite	eq
 8000ed8:	f042 0240 	orreq.w	r2, r2, #64	@ 0x40
 8000edc:	f022 0240 	bicne.w	r2, r2, #64	@ 0x40
 8000ee0:	601a      	str	r2, [r3, #0]
 8000ee2:	7ea2      	ldrb	r2, [r4, #26]
 8000ee4:	2a01      	cmp	r2, #1
 8000ee6:	681a      	ldr	r2, [r3, #0]
 8000ee8:	bf0c      	ite	eq
 8000eea:	f042 0220 	orreq.w	r2, r2, #32
 8000eee:	f022 0220 	bicne.w	r2, r2, #32
 8000ef2:	601a      	str	r2, [r3, #0]
 8000ef4:	7ee2      	ldrb	r2, [r4, #27]
 8000ef6:	2a01      	cmp	r2, #1
 8000ef8:	681a      	ldr	r2, [r3, #0]
 8000efa:	bf0c      	ite	eq
 8000efc:	f022 0210 	biceq.w	r2, r2, #16
 8000f00:	f042 0210 	orrne.w	r2, r2, #16
 8000f04:	601a      	str	r2, [r3, #0]
 8000f06:	7f22      	ldrb	r2, [r4, #28]
 8000f08:	2a01      	cmp	r2, #1
 8000f0a:	681a      	ldr	r2, [r3, #0]
 8000f0c:	bf0c      	ite	eq
 8000f0e:	f042 0208 	orreq.w	r2, r2, #8
 8000f12:	f022 0208 	bicne.w	r2, r2, #8
 8000f16:	601a      	str	r2, [r3, #0]
 8000f18:	7f62      	ldrb	r2, [r4, #29]
 8000f1a:	2a01      	cmp	r2, #1
 8000f1c:	681a      	ldr	r2, [r3, #0]
 8000f1e:	bf0c      	ite	eq
 8000f20:	f042 0204 	orreq.w	r2, r2, #4
 8000f24:	f022 0204 	bicne.w	r2, r2, #4
 8000f28:	601a      	str	r2, [r3, #0]
 8000f2a:	e9d4 2102 	ldrd	r2, r1, [r4, #8]
 8000f2e:	430a      	orrs	r2, r1
 8000f30:	6921      	ldr	r1, [r4, #16]
 8000f32:	430a      	orrs	r2, r1
 8000f34:	6961      	ldr	r1, [r4, #20]
 8000f36:	430a      	orrs	r2, r1
 8000f38:	6861      	ldr	r1, [r4, #4]
 8000f3a:	3901      	subs	r1, #1
 8000f3c:	430a      	orrs	r2, r1
 8000f3e:	61da      	str	r2, [r3, #28]
 8000f40:	2301      	movs	r3, #1
 8000f42:	6260      	str	r0, [r4, #36]	@ 0x24
 8000f44:	f884 3020 	strb.w	r3, [r4, #32]
 8000f48:	e00c      	b.n	0x8000f64
 8000f4a:	f7ff fc9f 	bl	0x800088c
 8000f4e:	1b40      	subs	r0, r0, r5
 8000f50:	280a      	cmp	r0, #10
 8000f52:	d9a4      	bls.n	0x8000e9e
 8000f54:	6a63      	ldr	r3, [r4, #36]	@ 0x24
 8000f56:	f443 3300 	orr.w	r3, r3, #131072	@ 0x20000
 8000f5a:	6263      	str	r3, [r4, #36]	@ 0x24
 8000f5c:	2305      	movs	r3, #5
 8000f5e:	f884 3020 	strb.w	r3, [r4, #32]
 8000f62:	2001      	movs	r0, #1
 8000f64:	bd38      	pop	{r3, r4, r5, pc}
 8000f66:	f7ff fc91 	bl	0x800088c
 8000f6a:	1b40      	subs	r0, r0, r5
 8000f6c:	280a      	cmp	r0, #10
 8000f6e:	d9a1      	bls.n	0x8000eb4
 8000f70:	e7f0      	b.n	0x8000f54
 8000f72:	b570      	push	{r4, r5, r6, lr}
 8000f74:	f890 2020 	ldrb.w	r2, [r0, #32]
 8000f78:	6803      	ldr	r3, [r0, #0]
 8000f7a:	3a01      	subs	r2, #1
 8000f7c:	2a01      	cmp	r2, #1
 8000f7e:	d862      	bhi.n	0x8001046
 8000f80:	2001      	movs	r0, #1
 8000f82:	f8d3 2200 	ldr.w	r2, [r3, #512]	@ 0x200
 8000f86:	f042 0201 	orr.w	r2, r2, #1
 8000f8a:	f8c3 2200 	str.w	r2, [r3, #512]	@ 0x200
 8000f8e:	694a      	ldr	r2, [r1, #20]
 8000f90:	f8d3 521c 	ldr.w	r5, [r3, #540]	@ 0x21c
 8000f94:	f002 041f 	and.w	r4, r2, #31
 8000f98:	40a0      	lsls	r0, r4
 8000f9a:	ea25 0500 	bic.w	r5, r5, r0
 8000f9e:	f8c3 521c 	str.w	r5, [r3, #540]	@ 0x21c
 8000fa2:	69cd      	ldr	r5, [r1, #28]
 8000fa4:	43c4      	mvns	r4, r0
 8000fa6:	bb95      	cbnz	r5, 0x800100e
 8000fa8:	f8d3 520c 	ldr.w	r5, [r3, #524]	@ 0x20c
 8000fac:	68ce      	ldr	r6, [r1, #12]
 8000fae:	4025      	ands	r5, r4
 8000fb0:	f8c3 520c 	str.w	r5, [r3, #524]	@ 0x20c
 8000fb4:	888d      	ldrh	r5, [r1, #4]
 8000fb6:	eb03 02c2 	add.w	r2, r3, r2, lsl #3
 8000fba:	ea45 4506 	orr.w	r5, r5, r6, lsl #16
 8000fbe:	f8c2 5240 	str.w	r5, [r2, #576]	@ 0x240
 8000fc2:	688e      	ldr	r6, [r1, #8]
 8000fc4:	880d      	ldrh	r5, [r1, #0]
 8000fc6:	ea45 4506 	orr.w	r5, r5, r6, lsl #16
 8000fca:	f8c2 5244 	str.w	r5, [r2, #580]	@ 0x244
 8000fce:	698a      	ldr	r2, [r1, #24]
 8000fd0:	bb7a      	cbnz	r2, 0x8001032
 8000fd2:	f8d3 2204 	ldr.w	r2, [r3, #516]	@ 0x204
 8000fd6:	4022      	ands	r2, r4
 8000fd8:	f8c3 2204 	str.w	r2, [r3, #516]	@ 0x204
 8000fdc:	690a      	ldr	r2, [r1, #16]
 8000fde:	bb62      	cbnz	r2, 0x800103a
 8000fe0:	f8d3 2214 	ldr.w	r2, [r3, #532]	@ 0x214
 8000fe4:	4014      	ands	r4, r2
 8000fe6:	f8c3 4214 	str.w	r4, [r3, #532]	@ 0x214
 8000fea:	6a0a      	ldr	r2, [r1, #32]
 8000fec:	2a01      	cmp	r2, #1
 8000fee:	bf04      	itt	eq
 8000ff0:	f8d3 221c 	ldreq.w	r2, [r3, #540]	@ 0x21c
 8000ff4:	4302      	orreq	r2, r0
 8000ff6:	f04f 0000 	mov.w	r0, #0
 8000ffa:	bf08      	it	eq
 8000ffc:	f8c3 221c 	streq.w	r2, [r3, #540]	@ 0x21c
 8001000:	f8d3 2200 	ldr.w	r2, [r3, #512]	@ 0x200
 8001004:	f022 0201 	bic.w	r2, r2, #1
 8001008:	f8c3 2200 	str.w	r2, [r3, #512]	@ 0x200
 800100c:	bd70      	pop	{r4, r5, r6, pc}
 800100e:	2d01      	cmp	r5, #1
 8001010:	d1dd      	bne.n	0x8000fce
 8001012:	f8d3 520c 	ldr.w	r5, [r3, #524]	@ 0x20c
 8001016:	680e      	ldr	r6, [r1, #0]
 8001018:	4305      	orrs	r5, r0
 800101a:	f8c3 520c 	str.w	r5, [r3, #524]	@ 0x20c
 800101e:	888d      	ldrh	r5, [r1, #4]
 8001020:	eb03 02c2 	add.w	r2, r3, r2, lsl #3
 8001024:	ea45 4506 	orr.w	r5, r5, r6, lsl #16
 8001028:	f8c2 5240 	str.w	r5, [r2, #576]	@ 0x240
 800102c:	688e      	ldr	r6, [r1, #8]
 800102e:	898d      	ldrh	r5, [r1, #12]
 8001030:	e7c9      	b.n	0x8000fc6
 8001032:	f8d3 2204 	ldr.w	r2, [r3, #516]	@ 0x204
 8001036:	4302      	orrs	r2, r0
 8001038:	e7ce      	b.n	0x8000fd8
 800103a:	f8d3 2214 	ldr.w	r2, [r3, #532]	@ 0x214
 800103e:	4302      	orrs	r2, r0
 8001040:	f8c3 2214 	str.w	r2, [r3, #532]	@ 0x214
 8001044:	e7d1      	b.n	0x8000fea
 8001046:	6a43      	ldr	r3, [r0, #36]	@ 0x24
 8001048:	f443 2380 	orr.w	r3, r3, #262144	@ 0x40000
 800104c:	6243      	str	r3, [r0, #36]	@ 0x24
 800104e:	2001      	movs	r0, #1
 8001050:	e7dc      	b.n	0x800100c
 8001052:	b538      	push	{r3, r4, r5, lr}
 8001054:	f890 3020 	ldrb.w	r3, [r0, #32]
 8001058:	4604      	mov	r4, r0
 800105a:	2b01      	cmp	r3, #1
 800105c:	d11f      	bne.n	0x800109e
 800105e:	2302      	movs	r3, #2
 8001060:	6802      	ldr	r2, [r0, #0]
 8001062:	f880 3020 	strb.w	r3, [r0, #32]
 8001066:	6813      	ldr	r3, [r2, #0]
 8001068:	f023 0301 	bic.w	r3, r3, #1
 800106c:	6013      	str	r3, [r2, #0]
 800106e:	f7ff fc0d 	bl	0x800088c
 8001072:	4605      	mov	r5, r0
 8001074:	6823      	ldr	r3, [r4, #0]
 8001076:	6858      	ldr	r0, [r3, #4]
 8001078:	f010 0001 	ands.w	r0, r0, #1
 800107c:	d101      	bne.n	0x8001082
 800107e:	6260      	str	r0, [r4, #36]	@ 0x24
 8001080:	bd38      	pop	{r3, r4, r5, pc}
 8001082:	f7ff fc03 	bl	0x800088c
 8001086:	1b40      	subs	r0, r0, r5
 8001088:	280a      	cmp	r0, #10
 800108a:	d9f3      	bls.n	0x8001074
 800108c:	6a63      	ldr	r3, [r4, #36]	@ 0x24
 800108e:	f443 3300 	orr.w	r3, r3, #131072	@ 0x20000
 8001092:	6263      	str	r3, [r4, #36]	@ 0x24
 8001094:	2305      	movs	r3, #5
 8001096:	f884 3020 	strb.w	r3, [r4, #32]
 800109a:	2001      	movs	r0, #1
 800109c:	e7f0      	b.n	0x8001080
 800109e:	6a43      	ldr	r3, [r0, #36]	@ 0x24
 80010a0:	f443 2300 	orr.w	r3, r3, #524288	@ 0x80000
 80010a4:	6243      	str	r3, [r0, #36]	@ 0x24
 80010a6:	e7f8      	b.n	0x800109a
 80010a8:	b5f0      	push	{r4, r5, r6, r7, lr}
 80010aa:	f890 5020 	ldrb.w	r5, [r0, #32]
 80010ae:	6804      	ldr	r4, [r0, #0]
 80010b0:	3d01      	subs	r5, #1
 80010b2:	2d01      	cmp	r5, #1
 80010b4:	68a6      	ldr	r6, [r4, #8]
 80010b6:	d83c      	bhi.n	0x8001132
 80010b8:	f016 5fe0 	tst.w	r6, #469762048	@ 0x1c000000
 80010bc:	d033      	beq.n	0x8001126
 80010be:	2501      	movs	r5, #1
 80010c0:	f3c6 6001 	ubfx	r0, r6, #24, #2
 80010c4:	4085      	lsls	r5, r0
 80010c6:	601d      	str	r5, [r3, #0]
 80010c8:	e9d1 5702 	ldrd	r5, r7, [r1, #8]
 80010cc:	f100 0318 	add.w	r3, r0, #24
 80010d0:	bb15      	cbnz	r5, 0x8001118
 80010d2:	680d      	ldr	r5, [r1, #0]
 80010d4:	011b      	lsls	r3, r3, #4
 80010d6:	ea47 5745 	orr.w	r7, r7, r5, lsl #21
 80010da:	50e7      	str	r7, [r4, r3]
 80010dc:	eb04 1300 	add.w	r3, r4, r0, lsl #4
 80010e0:	0105      	lsls	r5, r0, #4
 80010e2:	2000      	movs	r0, #0
 80010e4:	690e      	ldr	r6, [r1, #16]
 80010e6:	442c      	add	r4, r5
 80010e8:	f8c3 6184 	str.w	r6, [r3, #388]	@ 0x184
 80010ec:	7d09      	ldrb	r1, [r1, #20]
 80010ee:	2901      	cmp	r1, #1
 80010f0:	bf02      	ittt	eq
 80010f2:	f8d3 1184 	ldreq.w	r1, [r3, #388]	@ 0x184
 80010f6:	f441 7180 	orreq.w	r1, r1, #256	@ 0x100
 80010fa:	f8c3 1184 	streq.w	r1, [r3, #388]	@ 0x184
 80010fe:	6851      	ldr	r1, [r2, #4]
 8001100:	f8c4 118c 	str.w	r1, [r4, #396]	@ 0x18c
 8001104:	6812      	ldr	r2, [r2, #0]
 8001106:	f8c4 2188 	str.w	r2, [r4, #392]	@ 0x188
 800110a:	f8d3 2180 	ldr.w	r2, [r3, #384]	@ 0x180
 800110e:	f042 0201 	orr.w	r2, r2, #1
 8001112:	f8c3 2180 	str.w	r2, [r3, #384]	@ 0x180
 8001116:	bdf0      	pop	{r4, r5, r6, r7, pc}
 8001118:	684e      	ldr	r6, [r1, #4]
 800111a:	433d      	orrs	r5, r7
 800111c:	ea45 05c6 	orr.w	r5, r5, r6, lsl #3
 8001120:	011b      	lsls	r3, r3, #4
 8001122:	50e5      	str	r5, [r4, r3]
 8001124:	e7da      	b.n	0x80010dc
 8001126:	6a43      	ldr	r3, [r0, #36]	@ 0x24
 8001128:	f443 1300 	orr.w	r3, r3, #2097152	@ 0x200000
 800112c:	6243      	str	r3, [r0, #36]	@ 0x24
 800112e:	2001      	movs	r0, #1
 8001130:	e7f1      	b.n	0x8001116
 8001132:	6a43      	ldr	r3, [r0, #36]	@ 0x24
 8001134:	f443 2380 	orr.w	r3, r3, #262144	@ 0x40000
 8001138:	e7f8      	b.n	0x800112c
 800113a:	0000      	movs	r0, r0
 800113c:	4907      	ldr	r1, [pc, #28]	@ (0x800115c)
 800113e:	0203      	lsls	r3, r0, #8
 8001140:	68ca      	ldr	r2, [r1, #12]
 8001142:	f403 63e0 	and.w	r3, r3, #1792	@ 0x700
 8001146:	f422 62e0 	bic.w	r2, r2, #1792	@ 0x700
 800114a:	0412      	lsls	r2, r2, #16
 800114c:	0c12      	lsrs	r2, r2, #16
 800114e:	4313      	orrs	r3, r2
 8001150:	f043 63bf 	orr.w	r3, r3, #100139008	@ 0x5f80000
 8001154:	f443 3300 	orr.w	r3, r3, #131072	@ 0x20000
 8001158:	60cb      	str	r3, [r1, #12]
 800115a:	4770      	bx	lr
 800115c:	ed00 e000 	stc	0, cr14, [r0, #-0]
 8001160:	4b15      	ldr	r3, [pc, #84]	@ (0x80011b8)
 8001162:	b530      	push	{r4, r5, lr}
 8001164:	68dc      	ldr	r4, [r3, #12]
 8001166:	f3c4 2402 	ubfx	r4, r4, #8, #3
 800116a:	f1c4 0307 	rsb	r3, r4, #7
 800116e:	1d25      	adds	r5, r4, #4
 8001170:	2b04      	cmp	r3, #4
 8001172:	bf28      	it	cs
 8001174:	2304      	movcs	r3, #4
 8001176:	2d06      	cmp	r5, #6
 8001178:	f04f 35ff 	mov.w	r5, #4294967295	@ 0xffffffff
 800117c:	bf94      	ite	ls
 800117e:	2400      	movls	r4, #0
 8001180:	3c03      	subhi	r4, #3
 8001182:	fa05 f303 	lsl.w	r3, r5, r3
 8001186:	ea21 0303 	bic.w	r3, r1, r3
 800118a:	40a5      	lsls	r5, r4
 800118c:	ea22 0205 	bic.w	r2, r2, r5
 8001190:	40a3      	lsls	r3, r4
 8001192:	2800      	cmp	r0, #0
 8001194:	ea43 0302 	orr.w	r3, r3, r2
 8001198:	bfac      	ite	ge
 800119a:	f100 4060 	addge.w	r0, r0, #3758096384	@ 0xe0000000
 800119e:	4a07      	ldrlt	r2, [pc, #28]	@ (0x80011bc)
 80011a0:	ea4f 1303 	mov.w	r3, r3, lsl #4
 80011a4:	b2db      	uxtb	r3, r3
 80011a6:	bfab      	itete	ge
 80011a8:	f500 4061 	addge.w	r0, r0, #57600	@ 0xe100
 80011ac:	f000 000f 	andlt.w	r0, r0, #15
 80011b0:	f880 3300 	strbge.w	r3, [r0, #768]	@ 0x300
 80011b4:	5413      	strblt	r3, [r2, r0]
 80011b6:	bd30      	pop	{r4, r5, pc}
 80011b8:	ed00 e000 	stc	0, cr14, [r0, #-0]
 80011bc:	ed14 e000 	ldc	0, cr14, [r4, #-0]
 80011c0:	3801      	subs	r0, #1
 80011c2:	f1b0 7f80 	cmp.w	r0, #16777216	@ 0x1000000
 80011c6:	d20b      	bcs.n	0x80011e0
 80011c8:	f04f 23e0 	mov.w	r3, #3758153728	@ 0xe000e000
 80011cc:	21f0      	movs	r1, #240	@ 0xf0
 80011ce:	4a05      	ldr	r2, [pc, #20]	@ (0x80011e4)
 80011d0:	6158      	str	r0, [r3, #20]
 80011d2:	f882 1023 	strb.w	r1, [r2, #35]	@ 0x23
 80011d6:	2000      	movs	r0, #0
 80011d8:	2207      	movs	r2, #7
 80011da:	6198      	str	r0, [r3, #24]
 80011dc:	611a      	str	r2, [r3, #16]
 80011de:	4770      	bx	lr
 80011e0:	2001      	movs	r0, #1
 80011e2:	4770      	bx	lr
 80011e4:	ed00 e000 	stc	0, cr14, [r0, #-0]
 80011e8:	e92d 4ff7 	stmdb	sp!, {r0, r1, r2, r4, r5, r6, r7, r8, r9, sl, fp, lr}
 80011ec:	2400      	movs	r4, #0
 80011ee:	f04f 0e0f 	mov.w	lr, #15
 80011f2:	4626      	mov	r6, r4
 80011f4:	f8df c184 	ldr.w	ip, [pc, #388]	@ 0x800137c
 80011f8:	4b61      	ldr	r3, [pc, #388]	@ (0x8001380)
 80011fa:	f100 0804 	add.w	r8, r0, #4
 80011fe:	680a      	ldr	r2, [r1, #0]
 8001200:	fa32 f506 	lsrs.w	r5, r2, r6
 8001204:	d102      	bne.n	0x800120c
 8001206:	b003      	add	sp, #12
 8001208:	e8bd 8ff0 	ldmia.w	sp!, {r4, r5, r6, r7, r8, r9, sl, fp, pc}
 800120c:	2501      	movs	r5, #1
 800120e:	fa05 f706 	lsl.w	r7, r5, r6
 8001212:	ea02 0507 	and.w	r5, r2, r7
 8001216:	ea37 0202 	bics.w	r2, r7, r2
 800121a:	d176      	bne.n	0x800130a
 800121c:	684a      	ldr	r2, [r1, #4]
 800121e:	2a03      	cmp	r2, #3
 8001220:	d807      	bhi.n	0x8001232
 8001222:	3a01      	subs	r2, #1
 8001224:	2a02      	cmp	r2, #2
 8001226:	f200 8083 	bhi.w	0x8001330
 800122a:	e8df f002 	tbb	[pc, r2]
 800122e:	9691      	str	r6, [sp, #580]	@ 0x244
 8001230:	009c      	lsls	r4, r3, #2
 8001232:	2a12      	cmp	r2, #18
 8001234:	f000 8094 	beq.w	0x8001360
 8001238:	d869      	bhi.n	0x800130e
 800123a:	2a11      	cmp	r2, #17
 800123c:	f000 808a 	beq.w	0x8001354
 8001240:	2dff      	cmp	r5, #255	@ 0xff
 8001242:	bf94      	ite	ls
 8001244:	4681      	movls	r9, r0
 8001246:	46c1      	movhi	r9, r8
 8001248:	ea4f 0286 	mov.w	r2, r6, lsl #2
 800124c:	f8d9 7000 	ldr.w	r7, [r9]
 8001250:	bf88      	it	hi
 8001252:	3a20      	subhi	r2, #32
 8001254:	fa0e fa02 	lsl.w	sl, lr, r2
 8001258:	ea27 070a 	bic.w	r7, r7, sl
 800125c:	fa04 f202 	lsl.w	r2, r4, r2
 8001260:	4317      	orrs	r7, r2
 8001262:	f8c9 7000 	str.w	r7, [r9]
 8001266:	f8d1 9004 	ldr.w	r9, [r1, #4]
 800126a:	f019 5f80 	tst.w	r9, #268435456	@ 0x10000000
 800126e:	d04c      	beq.n	0x800130a
 8001270:	f8dc 2018 	ldr.w	r2, [ip, #24]
 8001274:	f026 0703 	bic.w	r7, r6, #3
 8001278:	f042 0201 	orr.w	r2, r2, #1
 800127c:	f8cc 2018 	str.w	r2, [ip, #24]
 8001280:	f8dc 2018 	ldr.w	r2, [ip, #24]
 8001284:	f107 4780 	add.w	r7, r7, #1073741824	@ 0x40000000
 8001288:	f002 0201 	and.w	r2, r2, #1
 800128c:	9201      	str	r2, [sp, #4]
 800128e:	f507 3780 	add.w	r7, r7, #65536	@ 0x10000
 8001292:	f006 0a03 	and.w	sl, r6, #3
 8001296:	9a01      	ldr	r2, [sp, #4]
 8001298:	ea4f 0a8a 	mov.w	sl, sl, lsl #2
 800129c:	68ba      	ldr	r2, [r7, #8]
 800129e:	fa0e fb0a 	lsl.w	fp, lr, sl
 80012a2:	ea22 0b0b 	bic.w	fp, r2, fp
 80012a6:	4a37      	ldr	r2, [pc, #220]	@ (0x8001384)
 80012a8:	4290      	cmp	r0, r2
 80012aa:	d060      	beq.n	0x800136e
 80012ac:	f502 6280 	add.w	r2, r2, #1024	@ 0x400
 80012b0:	4290      	cmp	r0, r2
 80012b2:	d05e      	beq.n	0x8001372
 80012b4:	f502 6280 	add.w	r2, r2, #1024	@ 0x400
 80012b8:	4290      	cmp	r0, r2
 80012ba:	d05c      	beq.n	0x8001376
 80012bc:	f502 6280 	add.w	r2, r2, #1024	@ 0x400
 80012c0:	4290      	cmp	r0, r2
 80012c2:	bf14      	ite	ne
 80012c4:	2204      	movne	r2, #4
 80012c6:	2203      	moveq	r2, #3
 80012c8:	fa02 f20a 	lsl.w	r2, r2, sl
 80012cc:	ea42 020b 	orr.w	r2, r2, fp
 80012d0:	60ba      	str	r2, [r7, #8]
 80012d2:	689a      	ldr	r2, [r3, #8]
 80012d4:	f419 1f80 	tst.w	r9, #1048576	@ 0x100000
 80012d8:	bf14      	ite	ne
 80012da:	432a      	orrne	r2, r5
 80012dc:	43aa      	biceq	r2, r5
 80012de:	609a      	str	r2, [r3, #8]
 80012e0:	68da      	ldr	r2, [r3, #12]
 80012e2:	f419 1f00 	tst.w	r9, #2097152	@ 0x200000
 80012e6:	bf14      	ite	ne
 80012e8:	432a      	orrne	r2, r5
 80012ea:	43aa      	biceq	r2, r5
 80012ec:	60da      	str	r2, [r3, #12]
 80012ee:	685a      	ldr	r2, [r3, #4]
 80012f0:	f419 3f00 	tst.w	r9, #131072	@ 0x20000
 80012f4:	bf14      	ite	ne
 80012f6:	432a      	orrne	r2, r5
 80012f8:	43aa      	biceq	r2, r5
 80012fa:	605a      	str	r2, [r3, #4]
 80012fc:	681a      	ldr	r2, [r3, #0]
 80012fe:	f419 3f80 	tst.w	r9, #65536	@ 0x10000
 8001302:	bf14      	ite	ne
 8001304:	432a      	orrne	r2, r5
 8001306:	43aa      	biceq	r2, r5
 8001308:	601a      	str	r2, [r3, #0]
 800130a:	3601      	adds	r6, #1
 800130c:	e777      	b.n	0x80011fe
 800130e:	f8df 9078 	ldr.w	r9, [pc, #120]	@ 0x8001388
 8001312:	454a      	cmp	r2, r9
 8001314:	d00c      	beq.n	0x8001330
 8001316:	d814      	bhi.n	0x8001342
 8001318:	f5a9 1980 	sub.w	r9, r9, #1048576	@ 0x100000
 800131c:	454a      	cmp	r2, r9
 800131e:	d007      	beq.n	0x8001330
 8001320:	f509 2970 	add.w	r9, r9, #983040	@ 0xf0000
 8001324:	454a      	cmp	r2, r9
 8001326:	d003      	beq.n	0x8001330
 8001328:	f5a9 1980 	sub.w	r9, r9, #1048576	@ 0x100000
 800132c:	454a      	cmp	r2, r9
 800132e:	d187      	bne.n	0x8001240
 8001330:	688a      	ldr	r2, [r1, #8]
 8001332:	b1d2      	cbz	r2, 0x800136a
 8001334:	2a01      	cmp	r2, #1
 8001336:	f04f 0408 	mov.w	r4, #8
 800133a:	bf0c      	ite	eq
 800133c:	6107      	streq	r7, [r0, #16]
 800133e:	6147      	strne	r7, [r0, #20]
 8001340:	e77e      	b.n	0x8001240
 8001342:	f8df 9048 	ldr.w	r9, [pc, #72]	@ 0x800138c
 8001346:	454a      	cmp	r2, r9
 8001348:	d0f2      	beq.n	0x8001330
 800134a:	f509 3980 	add.w	r9, r9, #65536	@ 0x10000
 800134e:	e7ed      	b.n	0x800132c
 8001350:	68cc      	ldr	r4, [r1, #12]
 8001352:	e775      	b.n	0x8001240
 8001354:	68cc      	ldr	r4, [r1, #12]
 8001356:	3404      	adds	r4, #4
 8001358:	e772      	b.n	0x8001240
 800135a:	68cc      	ldr	r4, [r1, #12]
 800135c:	3408      	adds	r4, #8
 800135e:	e76f      	b.n	0x8001240
 8001360:	68cc      	ldr	r4, [r1, #12]
 8001362:	340c      	adds	r4, #12
 8001364:	e76c      	b.n	0x8001240
 8001366:	2400      	movs	r4, #0
 8001368:	e76a      	b.n	0x8001240
 800136a:	2404      	movs	r4, #4
 800136c:	e768      	b.n	0x8001240
 800136e:	2200      	movs	r2, #0
 8001370:	e7aa      	b.n	0x80012c8
 8001372:	2201      	movs	r2, #1
 8001374:	e7a8      	b.n	0x80012c8
 8001376:	2202      	movs	r2, #2
 8001378:	e7a6      	b.n	0x80012c8
 800137a:	bf00      	nop
 800137c:	1000      	asrs	r0, r0, #32
 800137e:	4002      	ands	r2, r0
 8001380:	0400      	lsls	r0, r0, #16
 8001382:	4001      	ands	r1, r0
 8001384:	0800      	lsrs	r0, r0, #32
 8001386:	4001      	ands	r1, r0
 8001388:	0000      	movs	r0, r0
 800138a:	1022      	asrs	r2, r4, #32
 800138c:	0000      	movs	r0, r0
 800138e:	1031      	asrs	r1, r6, #32
 8001390:	b10a      	cbz	r2, 0x8001396
 8001392:	6101      	str	r1, [r0, #16]
 8001394:	4770      	bx	lr
 8001396:	0409      	lsls	r1, r1, #16
 8001398:	e7fb      	b.n	0x8001392
 800139a:	0000      	movs	r0, r0
 800139c:	e92d 41f3 	stmdb	sp!, {r0, r1, r4, r5, r6, r7, r8, lr}
 80013a0:	4605      	mov	r5, r0
 80013a2:	b338      	cbz	r0, 0x80013f4
 80013a4:	6803      	ldr	r3, [r0, #0]
 80013a6:	07db      	lsls	r3, r3, #31
 80013a8:	d410      	bmi.n	0x80013cc
 80013aa:	682b      	ldr	r3, [r5, #0]
 80013ac:	079f      	lsls	r7, r3, #30
 80013ae:	d45e      	bmi.n	0x800146e
 80013b0:	682b      	ldr	r3, [r5, #0]
 80013b2:	0719      	lsls	r1, r3, #28
 80013b4:	f100 8095 	bmi.w	0x80014e2
 80013b8:	682b      	ldr	r3, [r5, #0]
 80013ba:	075a      	lsls	r2, r3, #29
 80013bc:	f100 80c1 	bmi.w	0x8001542
 80013c0:	69eb      	ldr	r3, [r5, #28]
 80013c2:	2b00      	cmp	r3, #0
 80013c4:	f040 812c 	bne.w	0x8001620
 80013c8:	2000      	movs	r0, #0
 80013ca:	e029      	b.n	0x8001420
 80013cc:	4c90      	ldr	r4, [pc, #576]	@ (0x8001610)
 80013ce:	6863      	ldr	r3, [r4, #4]
 80013d0:	f003 030c 	and.w	r3, r3, #12
 80013d4:	2b04      	cmp	r3, #4
 80013d6:	d007      	beq.n	0x80013e8
 80013d8:	6863      	ldr	r3, [r4, #4]
 80013da:	f003 030c 	and.w	r3, r3, #12
 80013de:	2b08      	cmp	r3, #8
 80013e0:	d10a      	bne.n	0x80013f8
 80013e2:	6863      	ldr	r3, [r4, #4]
 80013e4:	03de      	lsls	r6, r3, #15
 80013e6:	d507      	bpl.n	0x80013f8
 80013e8:	6823      	ldr	r3, [r4, #0]
 80013ea:	039c      	lsls	r4, r3, #14
 80013ec:	d5dd      	bpl.n	0x80013aa
 80013ee:	686b      	ldr	r3, [r5, #4]
 80013f0:	2b00      	cmp	r3, #0
 80013f2:	d1da      	bne.n	0x80013aa
 80013f4:	2001      	movs	r0, #1
 80013f6:	e013      	b.n	0x8001420
 80013f8:	686b      	ldr	r3, [r5, #4]
 80013fa:	f5b3 3f80 	cmp.w	r3, #65536	@ 0x10000
 80013fe:	d112      	bne.n	0x8001426
 8001400:	6823      	ldr	r3, [r4, #0]
 8001402:	f443 3380 	orr.w	r3, r3, #65536	@ 0x10000
 8001406:	6023      	str	r3, [r4, #0]
 8001408:	f7ff fa40 	bl	0x800088c
 800140c:	4606      	mov	r6, r0
 800140e:	6823      	ldr	r3, [r4, #0]
 8001410:	0398      	lsls	r0, r3, #14
 8001412:	d4ca      	bmi.n	0x80013aa
 8001414:	f7ff fa3a 	bl	0x800088c
 8001418:	1b80      	subs	r0, r0, r6
 800141a:	2864      	cmp	r0, #100	@ 0x64
 800141c:	d9f7      	bls.n	0x800140e
 800141e:	2003      	movs	r0, #3
 8001420:	b002      	add	sp, #8
 8001422:	e8bd 81f0 	ldmia.w	sp!, {r4, r5, r6, r7, r8, pc}
 8001426:	b99b      	cbnz	r3, 0x8001450
 8001428:	6823      	ldr	r3, [r4, #0]
 800142a:	f423 3380 	bic.w	r3, r3, #65536	@ 0x10000
 800142e:	6023      	str	r3, [r4, #0]
 8001430:	6823      	ldr	r3, [r4, #0]
 8001432:	f423 2380 	bic.w	r3, r3, #262144	@ 0x40000
 8001436:	6023      	str	r3, [r4, #0]
 8001438:	f7ff fa28 	bl	0x800088c
 800143c:	4606      	mov	r6, r0
 800143e:	6823      	ldr	r3, [r4, #0]
 8001440:	0399      	lsls	r1, r3, #14
 8001442:	d5b2      	bpl.n	0x80013aa
 8001444:	f7ff fa22 	bl	0x800088c
 8001448:	1b80      	subs	r0, r0, r6
 800144a:	2864      	cmp	r0, #100	@ 0x64
 800144c:	d9f7      	bls.n	0x800143e
 800144e:	e7e6      	b.n	0x800141e
 8001450:	f5b3 2fa0 	cmp.w	r3, #327680	@ 0x50000
 8001454:	6823      	ldr	r3, [r4, #0]
 8001456:	d103      	bne.n	0x8001460
 8001458:	f443 2380 	orr.w	r3, r3, #262144	@ 0x40000
 800145c:	6023      	str	r3, [r4, #0]
 800145e:	e7cf      	b.n	0x8001400
 8001460:	f423 3380 	bic.w	r3, r3, #65536	@ 0x10000
 8001464:	6023      	str	r3, [r4, #0]
 8001466:	6823      	ldr	r3, [r4, #0]
 8001468:	f423 2380 	bic.w	r3, r3, #262144	@ 0x40000
 800146c:	e7cb      	b.n	0x8001406
 800146e:	4c68      	ldr	r4, [pc, #416]	@ (0x8001610)
 8001470:	6863      	ldr	r3, [r4, #4]
 8001472:	f013 0f0c 	tst.w	r3, #12
 8001476:	d007      	beq.n	0x8001488
 8001478:	6863      	ldr	r3, [r4, #4]
 800147a:	f003 030c 	and.w	r3, r3, #12
 800147e:	2b08      	cmp	r3, #8
 8001480:	d110      	bne.n	0x80014a4
 8001482:	6863      	ldr	r3, [r4, #4]
 8001484:	03da      	lsls	r2, r3, #15
 8001486:	d40d      	bmi.n	0x80014a4
 8001488:	6823      	ldr	r3, [r4, #0]
 800148a:	079b      	lsls	r3, r3, #30
 800148c:	d502      	bpl.n	0x8001494
 800148e:	692b      	ldr	r3, [r5, #16]
 8001490:	2b01      	cmp	r3, #1
 8001492:	d1af      	bne.n	0x80013f4
 8001494:	6823      	ldr	r3, [r4, #0]
 8001496:	696a      	ldr	r2, [r5, #20]
 8001498:	f023 03f8 	bic.w	r3, r3, #248	@ 0xf8
 800149c:	ea43 03c2 	orr.w	r3, r3, r2, lsl #3
 80014a0:	6023      	str	r3, [r4, #0]
 80014a2:	e785      	b.n	0x80013b0
 80014a4:	692a      	ldr	r2, [r5, #16]
 80014a6:	4b5b      	ldr	r3, [pc, #364]	@ (0x8001614)
 80014a8:	b16a      	cbz	r2, 0x80014c6
 80014aa:	2201      	movs	r2, #1
 80014ac:	601a      	str	r2, [r3, #0]
 80014ae:	f7ff f9ed 	bl	0x800088c
 80014b2:	4606      	mov	r6, r0
 80014b4:	6823      	ldr	r3, [r4, #0]
 80014b6:	079f      	lsls	r7, r3, #30
 80014b8:	d4ec      	bmi.n	0x8001494
 80014ba:	f7ff f9e7 	bl	0x800088c
 80014be:	1b80      	subs	r0, r0, r6
 80014c0:	2802      	cmp	r0, #2
 80014c2:	d9f7      	bls.n	0x80014b4
 80014c4:	e7ab      	b.n	0x800141e
 80014c6:	601a      	str	r2, [r3, #0]
 80014c8:	f7ff f9e0 	bl	0x800088c
 80014cc:	4606      	mov	r6, r0
 80014ce:	6823      	ldr	r3, [r4, #0]
 80014d0:	0798      	lsls	r0, r3, #30
 80014d2:	f57f af6d 	bpl.w	0x80013b0
 80014d6:	f7ff f9d9 	bl	0x800088c
 80014da:	1b80      	subs	r0, r0, r6
 80014dc:	2802      	cmp	r0, #2
 80014de:	d9f6      	bls.n	0x80014ce
 80014e0:	e79d      	b.n	0x800141e
 80014e2:	69aa      	ldr	r2, [r5, #24]
 80014e4:	4e4a      	ldr	r6, [pc, #296]	@ (0x8001610)
 80014e6:	4b4b      	ldr	r3, [pc, #300]	@ (0x8001614)
 80014e8:	b1e2      	cbz	r2, 0x8001524
 80014ea:	2201      	movs	r2, #1
 80014ec:	f8c3 2480 	str.w	r2, [r3, #1152]	@ 0x480
 80014f0:	f7ff f9cc 	bl	0x800088c
 80014f4:	4604      	mov	r4, r0
 80014f6:	6a73      	ldr	r3, [r6, #36]	@ 0x24
 80014f8:	079b      	lsls	r3, r3, #30
 80014fa:	d50d      	bpl.n	0x8001518
 80014fc:	f44f 52fa 	mov.w	r2, #8000	@ 0x1f40
 8001500:	4b45      	ldr	r3, [pc, #276]	@ (0x8001618)
 8001502:	681b      	ldr	r3, [r3, #0]
 8001504:	fbb3 f3f2 	udiv	r3, r3, r2
 8001508:	9301      	str	r3, [sp, #4]
 800150a:	bf00      	nop
 800150c:	9b01      	ldr	r3, [sp, #4]
 800150e:	1e5a      	subs	r2, r3, #1
 8001510:	9201      	str	r2, [sp, #4]
 8001512:	2b00      	cmp	r3, #0
 8001514:	d1f9      	bne.n	0x800150a
 8001516:	e74f      	b.n	0x80013b8
 8001518:	f7ff f9b8 	bl	0x800088c
 800151c:	1b00      	subs	r0, r0, r4
 800151e:	2802      	cmp	r0, #2
 8001520:	d9e9      	bls.n	0x80014f6
 8001522:	e77c      	b.n	0x800141e
 8001524:	f8c3 2480 	str.w	r2, [r3, #1152]	@ 0x480
 8001528:	f7ff f9b0 	bl	0x800088c
 800152c:	4604      	mov	r4, r0
 800152e:	6a73      	ldr	r3, [r6, #36]	@ 0x24
 8001530:	079f      	lsls	r7, r3, #30
 8001532:	f57f af41 	bpl.w	0x80013b8
 8001536:	f7ff f9a9 	bl	0x800088c
 800153a:	1b00      	subs	r0, r0, r4
 800153c:	2802      	cmp	r0, #2
 800153e:	d9f6      	bls.n	0x800152e
 8001540:	e76d      	b.n	0x800141e
 8001542:	4c33      	ldr	r4, [pc, #204]	@ (0x8001610)
 8001544:	69e3      	ldr	r3, [r4, #28]
 8001546:	00d8      	lsls	r0, r3, #3
 8001548:	d424      	bmi.n	0x8001594
 800154a:	2701      	movs	r7, #1
 800154c:	69e3      	ldr	r3, [r4, #28]
 800154e:	f043 5380 	orr.w	r3, r3, #268435456	@ 0x10000000
 8001552:	61e3      	str	r3, [r4, #28]
 8001554:	69e3      	ldr	r3, [r4, #28]
 8001556:	f003 5380 	and.w	r3, r3, #268435456	@ 0x10000000
 800155a:	9300      	str	r3, [sp, #0]
 800155c:	9b00      	ldr	r3, [sp, #0]
 800155e:	4e2f      	ldr	r6, [pc, #188]	@ (0x800161c)
 8001560:	6833      	ldr	r3, [r6, #0]
 8001562:	05d9      	lsls	r1, r3, #23
 8001564:	d518      	bpl.n	0x8001598
 8001566:	68eb      	ldr	r3, [r5, #12]
 8001568:	2b01      	cmp	r3, #1
 800156a:	d126      	bne.n	0x80015ba
 800156c:	6a23      	ldr	r3, [r4, #32]
 800156e:	f043 0301 	orr.w	r3, r3, #1
 8001572:	6223      	str	r3, [r4, #32]
 8001574:	f7ff f98a 	bl	0x800088c
 8001578:	f241 3888 	movw	r8, #5000	@ 0x1388
 800157c:	4606      	mov	r6, r0
 800157e:	6a23      	ldr	r3, [r4, #32]
 8001580:	079b      	lsls	r3, r3, #30
 8001582:	d53f      	bpl.n	0x8001604
 8001584:	2f00      	cmp	r7, #0
 8001586:	f43f af1b 	beq.w	0x80013c0
 800158a:	69e3      	ldr	r3, [r4, #28]
 800158c:	f023 5380 	bic.w	r3, r3, #268435456	@ 0x10000000
 8001590:	61e3      	str	r3, [r4, #28]
 8001592:	e715      	b.n	0x80013c0
 8001594:	2700      	movs	r7, #0
 8001596:	e7e2      	b.n	0x800155e
 8001598:	6833      	ldr	r3, [r6, #0]
 800159a:	f443 7380 	orr.w	r3, r3, #256	@ 0x100
 800159e:	6033      	str	r3, [r6, #0]
 80015a0:	f7ff f974 	bl	0x800088c
 80015a4:	4680      	mov	r8, r0
 80015a6:	6833      	ldr	r3, [r6, #0]
 80015a8:	05da      	lsls	r2, r3, #23
 80015aa:	d4dc      	bmi.n	0x8001566
 80015ac:	f7ff f96e 	bl	0x800088c
 80015b0:	eba0 0008 	sub.w	r0, r0, r8
 80015b4:	2864      	cmp	r0, #100	@ 0x64
 80015b6:	d9f6      	bls.n	0x80015a6
 80015b8:	e731      	b.n	0x800141e
 80015ba:	b9ab      	cbnz	r3, 0x80015e8
 80015bc:	6a23      	ldr	r3, [r4, #32]
 80015be:	f241 3888 	movw	r8, #5000	@ 0x1388
 80015c2:	f023 0301 	bic.w	r3, r3, #1
 80015c6:	6223      	str	r3, [r4, #32]
 80015c8:	6a23      	ldr	r3, [r4, #32]
 80015ca:	f023 0304 	bic.w	r3, r3, #4
 80015ce:	6223      	str	r3, [r4, #32]
 80015d0:	f7ff f95c 	bl	0x800088c
 80015d4:	4606      	mov	r6, r0
 80015d6:	6a23      	ldr	r3, [r4, #32]
 80015d8:	0798      	lsls	r0, r3, #30
 80015da:	d5d3      	bpl.n	0x8001584
 80015dc:	f7ff f956 	bl	0x800088c
 80015e0:	1b80      	subs	r0, r0, r6
 80015e2:	4540      	cmp	r0, r8
 80015e4:	d9f7      	bls.n	0x80015d6
 80015e6:	e71a      	b.n	0x800141e
 80015e8:	2b05      	cmp	r3, #5
 80015ea:	6a23      	ldr	r3, [r4, #32]
 80015ec:	d103      	bne.n	0x80015f6
 80015ee:	f043 0304 	orr.w	r3, r3, #4
 80015f2:	6223      	str	r3, [r4, #32]
 80015f4:	e7ba      	b.n	0x800156c
 80015f6:	f023 0301 	bic.w	r3, r3, #1
 80015fa:	6223      	str	r3, [r4, #32]
 80015fc:	6a23      	ldr	r3, [r4, #32]
 80015fe:	f023 0304 	bic.w	r3, r3, #4
 8001602:	e7b6      	b.n	0x8001572
 8001604:	f7ff f942 	bl	0x800088c
 8001608:	1b80      	subs	r0, r0, r6
 800160a:	4540      	cmp	r0, r8
 800160c:	d9b7      	bls.n	0x800157e
 800160e:	e706      	b.n	0x800141e
 8001610:	1000      	asrs	r0, r0, #32
 8001612:	4002      	ands	r2, r0
 8001614:	0000      	movs	r0, r0
 8001616:	4242      	negs	r2, r0
 8001618:	0000      	movs	r0, r0
 800161a:	2000      	movs	r0, #0
 800161c:	7000      	strb	r0, [r0, #0]
 800161e:	4000      	ands	r0, r0
 8001620:	4c2a      	ldr	r4, [pc, #168]	@ (0x80016cc)
 8001622:	6862      	ldr	r2, [r4, #4]
 8001624:	f002 020c 	and.w	r2, r2, #12
 8001628:	2a08      	cmp	r2, #8
 800162a:	d03e      	beq.n	0x80016aa
 800162c:	2200      	movs	r2, #0
 800162e:	2b02      	cmp	r3, #2
 8001630:	4b27      	ldr	r3, [pc, #156]	@ (0x80016d0)
 8001632:	661a      	str	r2, [r3, #96]	@ 0x60
 8001634:	d12c      	bne.n	0x8001690
 8001636:	f7ff f929 	bl	0x800088c
 800163a:	4606      	mov	r6, r0
 800163c:	6823      	ldr	r3, [r4, #0]
 800163e:	0199      	lsls	r1, r3, #6
 8001640:	d420      	bmi.n	0x8001684
 8001642:	6a2b      	ldr	r3, [r5, #32]
 8001644:	f5b3 3f80 	cmp.w	r3, #65536	@ 0x10000
 8001648:	d105      	bne.n	0x8001656
 800164a:	6862      	ldr	r2, [r4, #4]
 800164c:	68a9      	ldr	r1, [r5, #8]
 800164e:	f422 3200 	bic.w	r2, r2, #131072	@ 0x20000
 8001652:	430a      	orrs	r2, r1
 8001654:	6062      	str	r2, [r4, #4]
 8001656:	6a69      	ldr	r1, [r5, #36]	@ 0x24
 8001658:	6862      	ldr	r2, [r4, #4]
 800165a:	430b      	orrs	r3, r1
 800165c:	f422 1274 	bic.w	r2, r2, #3997696	@ 0x3d0000
 8001660:	4313      	orrs	r3, r2
 8001662:	2201      	movs	r2, #1
 8001664:	6063      	str	r3, [r4, #4]
 8001666:	4b1a      	ldr	r3, [pc, #104]	@ (0x80016d0)
 8001668:	661a      	str	r2, [r3, #96]	@ 0x60
 800166a:	f7ff f90f 	bl	0x800088c
 800166e:	4605      	mov	r5, r0
 8001670:	6823      	ldr	r3, [r4, #0]
 8001672:	019a      	lsls	r2, r3, #6
 8001674:	f53f aea8 	bmi.w	0x80013c8
 8001678:	f7ff f908 	bl	0x800088c
 800167c:	1b40      	subs	r0, r0, r5
 800167e:	2802      	cmp	r0, #2
 8001680:	d9f6      	bls.n	0x8001670
 8001682:	e6cc      	b.n	0x800141e
 8001684:	f7ff f902 	bl	0x800088c
 8001688:	1b80      	subs	r0, r0, r6
 800168a:	2802      	cmp	r0, #2
 800168c:	d9d6      	bls.n	0x800163c
 800168e:	e6c6      	b.n	0x800141e
 8001690:	f7ff f8fc 	bl	0x800088c
 8001694:	4605      	mov	r5, r0
 8001696:	6823      	ldr	r3, [r4, #0]
 8001698:	019b      	lsls	r3, r3, #6
 800169a:	f57f ae95 	bpl.w	0x80013c8
 800169e:	f7ff f8f5 	bl	0x800088c
 80016a2:	1b40      	subs	r0, r0, r5
 80016a4:	2802      	cmp	r0, #2
 80016a6:	d9f6      	bls.n	0x8001696
 80016a8:	e6b9      	b.n	0x800141e
 80016aa:	2b01      	cmp	r3, #1
 80016ac:	f43f aea2 	beq.w	0x80013f4
 80016b0:	6860      	ldr	r0, [r4, #4]
 80016b2:	6a2b      	ldr	r3, [r5, #32]
 80016b4:	f400 3280 	and.w	r2, r0, #65536	@ 0x10000
 80016b8:	429a      	cmp	r2, r3
 80016ba:	f47f ae9b 	bne.w	0x80013f4
 80016be:	6a6b      	ldr	r3, [r5, #36]	@ 0x24
 80016c0:	f400 1070 	and.w	r0, r0, #3932160	@ 0x3c0000
 80016c4:	1ac0      	subs	r0, r0, r3
 80016c6:	bf18      	it	ne
 80016c8:	2001      	movne	r0, #1
 80016ca:	e6a9      	b.n	0x8001420
 80016cc:	1000      	asrs	r0, r0, #32
 80016ce:	4002      	ands	r2, r0
 80016d0:	0000      	movs	r0, r0
 80016d2:	4242      	negs	r2, r0
 80016d4:	4a0d      	ldr	r2, [pc, #52]	@ (0x800170c)
 80016d6:	6853      	ldr	r3, [r2, #4]
 80016d8:	f003 010c 	and.w	r1, r3, #12
 80016dc:	2908      	cmp	r1, #8
 80016de:	d112      	bne.n	0x8001706
 80016e0:	480b      	ldr	r0, [pc, #44]	@ (0x8001710)
 80016e2:	f3c3 4183 	ubfx	r1, r3, #18, #4
 80016e6:	03db      	lsls	r3, r3, #15
 80016e8:	5c40      	ldrb	r0, [r0, r1]
 80016ea:	d509      	bpl.n	0x8001700
 80016ec:	6853      	ldr	r3, [r2, #4]
 80016ee:	4a09      	ldr	r2, [pc, #36]	@ (0x8001714)
 80016f0:	f3c3 4340 	ubfx	r3, r3, #17, #1
 80016f4:	4350      	muls	r0, r2
 80016f6:	4a08      	ldr	r2, [pc, #32]	@ (0x8001718)
 80016f8:	5cd3      	ldrb	r3, [r2, r3]
 80016fa:	fbb0 f0f3 	udiv	r0, r0, r3
 80016fe:	4770      	bx	lr
 8001700:	4b06      	ldr	r3, [pc, #24]	@ (0x800171c)
 8001702:	4358      	muls	r0, r3
 8001704:	4770      	bx	lr
 8001706:	4803      	ldr	r0, [pc, #12]	@ (0x8001714)
 8001708:	4770      	bx	lr
 800170a:	bf00      	nop
 800170c:	1000      	asrs	r0, r0, #32
 800170e:	4002      	ands	r2, r0
 8001710:	26cf      	movs	r6, #207	@ 0xcf
 8001712:	0800      	lsrs	r0, r0, #32
 8001714:	1200      	asrs	r0, r0, #8
 8001716:	007a      	lsls	r2, r7, #1
 8001718:	26cd      	movs	r6, #205	@ 0xcd
 800171a:	0800      	lsrs	r0, r0, #32
 800171c:	0900      	lsrs	r0, r0, #4
 800171e:	003d      	movs	r5, r7
 8001720:	e92d 41f0 	stmdb	sp!, {r4, r5, r6, r7, r8, lr}
 8001724:	460d      	mov	r5, r1
 8001726:	4604      	mov	r4, r0
 8001728:	b910      	cbnz	r0, 0x8001730
 800172a:	2001      	movs	r0, #1
 800172c:	e8bd 81f0 	ldmia.w	sp!, {r4, r5, r6, r7, r8, pc}
 8001730:	4a44      	ldr	r2, [pc, #272]	@ (0x8001844)
 8001732:	6813      	ldr	r3, [r2, #0]
 8001734:	f003 0307 	and.w	r3, r3, #7
 8001738:	428b      	cmp	r3, r1
 800173a:	d328      	bcc.n	0x800178e
 800173c:	6821      	ldr	r1, [r4, #0]
 800173e:	078e      	lsls	r6, r1, #30
 8001740:	d430      	bmi.n	0x80017a4
 8001742:	07ca      	lsls	r2, r1, #31
 8001744:	d443      	bmi.n	0x80017ce
 8001746:	4a3f      	ldr	r2, [pc, #252]	@ (0x8001844)
 8001748:	6813      	ldr	r3, [r2, #0]
 800174a:	f003 0307 	and.w	r3, r3, #7
 800174e:	42ab      	cmp	r3, r5
 8001750:	d865      	bhi.n	0x800181e
 8001752:	6822      	ldr	r2, [r4, #0]
 8001754:	4d3c      	ldr	r5, [pc, #240]	@ (0x8001848)
 8001756:	f012 0f04 	tst.w	r2, #4
 800175a:	d16c      	bne.n	0x8001836
 800175c:	0713      	lsls	r3, r2, #28
 800175e:	d506      	bpl.n	0x800176e
 8001760:	686b      	ldr	r3, [r5, #4]
 8001762:	6922      	ldr	r2, [r4, #16]
 8001764:	f423 5360 	bic.w	r3, r3, #14336	@ 0x3800
 8001768:	ea43 03c2 	orr.w	r3, r3, r2, lsl #3
 800176c:	606b      	str	r3, [r5, #4]
 800176e:	f7ff ffb1 	bl	0x80016d4
 8001772:	686b      	ldr	r3, [r5, #4]
 8001774:	4a35      	ldr	r2, [pc, #212]	@ (0x800184c)
 8001776:	f3c3 1303 	ubfx	r3, r3, #4, #4
 800177a:	5cd3      	ldrb	r3, [r2, r3]
 800177c:	40d8      	lsrs	r0, r3
 800177e:	4b34      	ldr	r3, [pc, #208]	@ (0x8001850)
 8001780:	6018      	str	r0, [r3, #0]
 8001782:	4b34      	ldr	r3, [pc, #208]	@ (0x8001854)
 8001784:	6818      	ldr	r0, [r3, #0]
 8001786:	f7ff f83f 	bl	0x8000808
 800178a:	2000      	movs	r0, #0
 800178c:	e7ce      	b.n	0x800172c
 800178e:	6813      	ldr	r3, [r2, #0]
 8001790:	f023 0307 	bic.w	r3, r3, #7
 8001794:	430b      	orrs	r3, r1
 8001796:	6013      	str	r3, [r2, #0]
 8001798:	6813      	ldr	r3, [r2, #0]
 800179a:	f003 0307 	and.w	r3, r3, #7
 800179e:	428b      	cmp	r3, r1
 80017a0:	d1c3      	bne.n	0x800172a
 80017a2:	e7cb      	b.n	0x800173c
 80017a4:	4b28      	ldr	r3, [pc, #160]	@ (0x8001848)
 80017a6:	f011 0f04 	tst.w	r1, #4
 80017aa:	bf1e      	ittt	ne
 80017ac:	685a      	ldrne	r2, [r3, #4]
 80017ae:	f442 62e0 	orrne.w	r2, r2, #1792	@ 0x700
 80017b2:	605a      	strne	r2, [r3, #4]
 80017b4:	0708      	lsls	r0, r1, #28
 80017b6:	bf42      	ittt	mi
 80017b8:	685a      	ldrmi	r2, [r3, #4]
 80017ba:	f442 5260 	orrmi.w	r2, r2, #14336	@ 0x3800
 80017be:	605a      	strmi	r2, [r3, #4]
 80017c0:	685a      	ldr	r2, [r3, #4]
 80017c2:	68a0      	ldr	r0, [r4, #8]
 80017c4:	f022 02f0 	bic.w	r2, r2, #240	@ 0xf0
 80017c8:	4302      	orrs	r2, r0
 80017ca:	605a      	str	r2, [r3, #4]
 80017cc:	e7b9      	b.n	0x8001742
 80017ce:	6862      	ldr	r2, [r4, #4]
 80017d0:	4e1d      	ldr	r6, [pc, #116]	@ (0x8001848)
 80017d2:	2a01      	cmp	r2, #1
 80017d4:	6833      	ldr	r3, [r6, #0]
 80017d6:	d11a      	bne.n	0x800180e
 80017d8:	f413 3f00 	tst.w	r3, #131072	@ 0x20000
 80017dc:	d0a5      	beq.n	0x800172a
 80017de:	6873      	ldr	r3, [r6, #4]
 80017e0:	f241 3888 	movw	r8, #5000	@ 0x1388
 80017e4:	f023 0303 	bic.w	r3, r3, #3
 80017e8:	4313      	orrs	r3, r2
 80017ea:	6073      	str	r3, [r6, #4]
 80017ec:	f7ff f84e 	bl	0x800088c
 80017f0:	4607      	mov	r7, r0
 80017f2:	6873      	ldr	r3, [r6, #4]
 80017f4:	6862      	ldr	r2, [r4, #4]
 80017f6:	f003 030c 	and.w	r3, r3, #12
 80017fa:	ebb3 0f82 	cmp.w	r3, r2, lsl #2
 80017fe:	d0a2      	beq.n	0x8001746
 8001800:	f7ff f844 	bl	0x800088c
 8001804:	1bc0      	subs	r0, r0, r7
 8001806:	4540      	cmp	r0, r8
 8001808:	d9f3      	bls.n	0x80017f2
 800180a:	2003      	movs	r0, #3
 800180c:	e78e      	b.n	0x800172c
 800180e:	2a02      	cmp	r2, #2
 8001810:	d102      	bne.n	0x8001818
 8001812:	f013 7f00 	tst.w	r3, #33554432	@ 0x2000000
 8001816:	e7e1      	b.n	0x80017dc
 8001818:	f013 0f02 	tst.w	r3, #2
 800181c:	e7de      	b.n	0x80017dc
 800181e:	6813      	ldr	r3, [r2, #0]
 8001820:	f023 0307 	bic.w	r3, r3, #7
 8001824:	432b      	orrs	r3, r5
 8001826:	6013      	str	r3, [r2, #0]
 8001828:	6813      	ldr	r3, [r2, #0]
 800182a:	f003 0307 	and.w	r3, r3, #7
 800182e:	42ab      	cmp	r3, r5
 8001830:	f47f af7b 	bne.w	0x800172a
 8001834:	e78d      	b.n	0x8001752
 8001836:	686b      	ldr	r3, [r5, #4]
 8001838:	68e1      	ldr	r1, [r4, #12]
 800183a:	f423 63e0 	bic.w	r3, r3, #1792	@ 0x700
 800183e:	430b      	orrs	r3, r1
 8001840:	606b      	str	r3, [r5, #4]
 8001842:	e78b      	b.n	0x800175c
 8001844:	2000      	movs	r0, #0
 8001846:	4002      	ands	r2, r0
 8001848:	1000      	asrs	r0, r0, #32
 800184a:	4002      	ands	r2, r0
 800184c:	26bd      	movs	r6, #189	@ 0xbd
 800184e:	0800      	lsrs	r0, r0, #32
 8001850:	0000      	movs	r0, r0
 8001852:	2000      	movs	r0, #0
 8001854:	0008      	movs	r0, r1
 8001856:	2000      	movs	r0, #0
 8001858:	4b04      	ldr	r3, [pc, #16]	@ (0x800186c)
 800185a:	4a05      	ldr	r2, [pc, #20]	@ (0x8001870)
 800185c:	685b      	ldr	r3, [r3, #4]
 800185e:	f3c3 23c2 	ubfx	r3, r3, #11, #3
 8001862:	5cd3      	ldrb	r3, [r2, r3]
 8001864:	4a03      	ldr	r2, [pc, #12]	@ (0x8001874)
 8001866:	6810      	ldr	r0, [r2, #0]
 8001868:	40d8      	lsrs	r0, r3
 800186a:	4770      	bx	lr
 800186c:	1000      	asrs	r0, r0, #32
 800186e:	4002      	ands	r2, r0
 8001870:	26b5      	movs	r6, #181	@ 0xb5
 8001872:	0800      	lsrs	r0, r0, #32
 8001874:	0000      	movs	r0, r0
 8001876:	2000      	movs	r0, #0
 8001878:	6803      	ldr	r3, [r0, #0]
 800187a:	e92d 41f3 	stmdb	sp!, {r0, r1, r4, r5, r6, r7, r8, lr}
 800187e:	4605      	mov	r5, r0
 8001880:	07d8      	lsls	r0, r3, #31
 8001882:	d521      	bpl.n	0x80018c8
 8001884:	4c36      	ldr	r4, [pc, #216]	@ (0x8001960)
 8001886:	69e3      	ldr	r3, [r4, #28]
 8001888:	00d9      	lsls	r1, r3, #3
 800188a:	d42b      	bmi.n	0x80018e4
 800188c:	2601      	movs	r6, #1
 800188e:	69e3      	ldr	r3, [r4, #28]
 8001890:	f043 5380 	orr.w	r3, r3, #268435456	@ 0x10000000
 8001894:	61e3      	str	r3, [r4, #28]
 8001896:	69e3      	ldr	r3, [r4, #28]
 8001898:	f003 5380 	and.w	r3, r3, #268435456	@ 0x10000000
 800189c:	9301      	str	r3, [sp, #4]
 800189e:	9b01      	ldr	r3, [sp, #4]
 80018a0:	4f30      	ldr	r7, [pc, #192]	@ (0x8001964)
 80018a2:	683b      	ldr	r3, [r7, #0]
 80018a4:	05da      	lsls	r2, r3, #23
 80018a6:	d51f      	bpl.n	0x80018e8
 80018a8:	6a23      	ldr	r3, [r4, #32]
 80018aa:	686a      	ldr	r2, [r5, #4]
 80018ac:	f413 7340 	ands.w	r3, r3, #768	@ 0x300
 80018b0:	d12e      	bne.n	0x8001910
 80018b2:	6a23      	ldr	r3, [r4, #32]
 80018b4:	686a      	ldr	r2, [r5, #4]
 80018b6:	f423 7340 	bic.w	r3, r3, #768	@ 0x300
 80018ba:	4313      	orrs	r3, r2
 80018bc:	6223      	str	r3, [r4, #32]
 80018be:	b11e      	cbz	r6, 0x80018c8
 80018c0:	69e3      	ldr	r3, [r4, #28]
 80018c2:	f023 5380 	bic.w	r3, r3, #268435456	@ 0x10000000
 80018c6:	61e3      	str	r3, [r4, #28]
 80018c8:	682a      	ldr	r2, [r5, #0]
 80018ca:	0791      	lsls	r1, r2, #30
 80018cc:	d506      	bpl.n	0x80018dc
 80018ce:	4924      	ldr	r1, [pc, #144]	@ (0x8001960)
 80018d0:	68a8      	ldr	r0, [r5, #8]
 80018d2:	684b      	ldr	r3, [r1, #4]
 80018d4:	f423 4340 	bic.w	r3, r3, #49152	@ 0xc000
 80018d8:	4303      	orrs	r3, r0
 80018da:	604b      	str	r3, [r1, #4]
 80018dc:	06d3      	lsls	r3, r2, #27
 80018de:	d436      	bmi.n	0x800194e
 80018e0:	2000      	movs	r0, #0
 80018e2:	e012      	b.n	0x800190a
 80018e4:	2600      	movs	r6, #0
 80018e6:	e7db      	b.n	0x80018a0
 80018e8:	683b      	ldr	r3, [r7, #0]
 80018ea:	f443 7380 	orr.w	r3, r3, #256	@ 0x100
 80018ee:	603b      	str	r3, [r7, #0]
 80018f0:	f7fe ffcc 	bl	0x800088c
 80018f4:	4680      	mov	r8, r0
 80018f6:	683b      	ldr	r3, [r7, #0]
 80018f8:	05db      	lsls	r3, r3, #23
 80018fa:	d4d5      	bmi.n	0x80018a8
 80018fc:	f7fe ffc6 	bl	0x800088c
 8001900:	eba0 0008 	sub.w	r0, r0, r8
 8001904:	2864      	cmp	r0, #100	@ 0x64
 8001906:	d9f6      	bls.n	0x80018f6
 8001908:	2003      	movs	r0, #3
 800190a:	b002      	add	sp, #8
 800190c:	e8bd 81f0 	ldmia.w	sp!, {r4, r5, r6, r7, r8, pc}
 8001910:	f402 7240 	and.w	r2, r2, #768	@ 0x300
 8001914:	429a      	cmp	r2, r3
 8001916:	d0cc      	beq.n	0x80018b2
 8001918:	2001      	movs	r0, #1
 800191a:	4a13      	ldr	r2, [pc, #76]	@ (0x8001968)
 800191c:	6a23      	ldr	r3, [r4, #32]
 800191e:	f8c2 0440 	str.w	r0, [r2, #1088]	@ 0x440
 8001922:	2000      	movs	r0, #0
 8001924:	f423 7140 	bic.w	r1, r3, #768	@ 0x300
 8001928:	07df      	lsls	r7, r3, #31
 800192a:	f8c2 0440 	str.w	r0, [r2, #1088]	@ 0x440
 800192e:	6221      	str	r1, [r4, #32]
 8001930:	d5bf      	bpl.n	0x80018b2
 8001932:	f7fe ffab 	bl	0x800088c
 8001936:	f241 3888 	movw	r8, #5000	@ 0x1388
 800193a:	4607      	mov	r7, r0
 800193c:	6a23      	ldr	r3, [r4, #32]
 800193e:	0798      	lsls	r0, r3, #30
 8001940:	d4b7      	bmi.n	0x80018b2
 8001942:	f7fe ffa3 	bl	0x800088c
 8001946:	1bc0      	subs	r0, r0, r7
 8001948:	4540      	cmp	r0, r8
 800194a:	d9f7      	bls.n	0x800193c
 800194c:	e7dc      	b.n	0x8001908
 800194e:	4a04      	ldr	r2, [pc, #16]	@ (0x8001960)
 8001950:	68e9      	ldr	r1, [r5, #12]
 8001952:	6853      	ldr	r3, [r2, #4]
 8001954:	f423 0380 	bic.w	r3, r3, #4194304	@ 0x400000
 8001958:	430b      	orrs	r3, r1
 800195a:	6053      	str	r3, [r2, #4]
 800195c:	e7c0      	b.n	0x80018e0
 800195e:	bf00      	nop
 8001960:	1000      	asrs	r0, r0, #32
 8001962:	4002      	ands	r2, r0
 8001964:	7000      	strb	r0, [r0, #0]
 8001966:	4000      	ands	r0, r0
 8001968:	0000      	movs	r0, r0
 800196a:	4242      	negs	r2, r0
 800196c:	2802      	cmp	r0, #2
 800196e:	b508      	push	{r3, lr}
 8001970:	d044      	beq.n	0x80019fc
 8001972:	2810      	cmp	r0, #16
 8001974:	d003      	beq.n	0x800197e
 8001976:	2801      	cmp	r0, #1
 8001978:	d022      	beq.n	0x80019c0
 800197a:	2000      	movs	r0, #0
 800197c:	e034      	b.n	0x80019e8
 800197e:	4b25      	ldr	r3, [pc, #148]	@ (0x8001a14)
 8001980:	685a      	ldr	r2, [r3, #4]
 8001982:	6818      	ldr	r0, [r3, #0]
 8001984:	f010 7080 	ands.w	r0, r0, #16777216	@ 0x1000000
 8001988:	d02e      	beq.n	0x80019e8
 800198a:	f3c2 4183 	ubfx	r1, r2, #18, #4
 800198e:	4822      	ldr	r0, [pc, #136]	@ (0x8001a18)
 8001990:	03d2      	lsls	r2, r2, #15
 8001992:	bf48      	it	mi
 8001994:	685a      	ldrmi	r2, [r3, #4]
 8001996:	5c40      	ldrb	r0, [r0, r1]
 8001998:	bf41      	itttt	mi
 800199a:	4920      	ldrmi	r1, [pc, #128]	@ (0x8001a1c)
 800199c:	f3c2 4240 	ubfxmi	r2, r2, #17, #1
 80019a0:	5c89      	ldrbmi	r1, [r1, r2]
 80019a2:	4a1f      	ldrmi	r2, [pc, #124]	@ (0x8001a20)
 80019a4:	685b      	ldr	r3, [r3, #4]
 80019a6:	bf4c      	ite	mi
 80019a8:	fbb2 f2f1 	udivmi	r2, r2, r1
 80019ac:	4a1d      	ldrpl	r2, [pc, #116]	@ (0x8001a24)
 80019ae:	025b      	lsls	r3, r3, #9
 80019b0:	fb02 f000 	mul.w	r0, r2, r0
 80019b4:	d418      	bmi.n	0x80019e8
 80019b6:	2303      	movs	r3, #3
 80019b8:	0040      	lsls	r0, r0, #1
 80019ba:	fbb0 f0f3 	udiv	r0, r0, r3
 80019be:	e013      	b.n	0x80019e8
 80019c0:	f240 3102 	movw	r1, #770	@ 0x302
 80019c4:	4a13      	ldr	r2, [pc, #76]	@ (0x8001a14)
 80019c6:	6a13      	ldr	r3, [r2, #32]
 80019c8:	4019      	ands	r1, r3
 80019ca:	f5b1 7f81 	cmp.w	r1, #258	@ 0x102
 80019ce:	d01e      	beq.n	0x8001a0e
 80019d0:	f403 7340 	and.w	r3, r3, #768	@ 0x300
 80019d4:	f5b3 7f00 	cmp.w	r3, #512	@ 0x200
 80019d8:	d107      	bne.n	0x80019ea
 80019da:	f649 4040 	movw	r0, #40000	@ 0x9c40
 80019de:	6a53      	ldr	r3, [r2, #36]	@ 0x24
 80019e0:	f013 0f02 	tst.w	r3, #2
 80019e4:	bf08      	it	eq
 80019e6:	2000      	moveq	r0, #0
 80019e8:	bd08      	pop	{r3, pc}
 80019ea:	f5b3 7f40 	cmp.w	r3, #768	@ 0x300
 80019ee:	d1c4      	bne.n	0x800197a
 80019f0:	6813      	ldr	r3, [r2, #0]
 80019f2:	f24f 4024 	movw	r0, #62500	@ 0xf424
 80019f6:	f413 3f00 	tst.w	r3, #131072	@ 0x20000
 80019fa:	e7f3      	b.n	0x80019e4
 80019fc:	f7ff ff2c 	bl	0x8001858
 8001a00:	4b04      	ldr	r3, [pc, #16]	@ (0x8001a14)
 8001a02:	685b      	ldr	r3, [r3, #4]
 8001a04:	f3c3 3381 	ubfx	r3, r3, #14, #2
 8001a08:	3301      	adds	r3, #1
 8001a0a:	005b      	lsls	r3, r3, #1
 8001a0c:	e7d5      	b.n	0x80019ba
 8001a0e:	f44f 4000 	mov.w	r0, #32768	@ 0x8000
 8001a12:	e7e9      	b.n	0x80019e8
 8001a14:	1000      	asrs	r0, r0, #32
 8001a16:	4002      	ands	r2, r0
 8001a18:	26e1      	movs	r6, #225	@ 0xe1
 8001a1a:	0800      	lsrs	r0, r0, #32
 8001a1c:	26df      	movs	r6, #223	@ 0xdf
 8001a1e:	0800      	lsrs	r0, r0, #32
 8001a20:	1200      	asrs	r0, r0, #8
 8001a22:	007a      	lsls	r2, r7, #1
 8001a24:	0900      	lsrs	r0, r0, #4
 8001a26:	003d      	movs	r5, r7
 8001a28:	e92d 47f3 	stmdb	sp!, {r0, r1, r4, r5, r6, r7, r8, r9, sl, lr}
 8001a2c:	461f      	mov	r7, r3
 8001a2e:	4689      	mov	r9, r1
 8001a30:	4690      	mov	r8, r2
 8001a32:	4604      	mov	r4, r0
 8001a34:	f7fe ff2a 	bl	0x800088c
 8001a38:	9d0a      	ldr	r5, [sp, #40]	@ 0x28
 8001a3a:	443d      	add	r5, r7
 8001a3c:	1a2d      	subs	r5, r5, r0
 8001a3e:	f7fe ff25 	bl	0x800088c
 8001a42:	4682      	mov	sl, r0
 8001a44:	4b25      	ldr	r3, [pc, #148]	@ (0x8001adc)
 8001a46:	681e      	ldr	r6, [r3, #0]
 8001a48:	f3c6 36cb 	ubfx	r6, r6, #15, #12
 8001a4c:	436e      	muls	r6, r5
 8001a4e:	9601      	str	r6, [sp, #4]
 8001a50:	6822      	ldr	r2, [r4, #0]
 8001a52:	6893      	ldr	r3, [r2, #8]
 8001a54:	ea39 0303 	bics.w	r3, r9, r3
 8001a58:	bf0c      	ite	eq
 8001a5a:	2301      	moveq	r3, #1
 8001a5c:	2300      	movne	r3, #0
 8001a5e:	4543      	cmp	r3, r8
 8001a60:	d101      	bne.n	0x8001a66
 8001a62:	2000      	movs	r0, #0
 8001a64:	e02e      	b.n	0x8001ac4
 8001a66:	1c7b      	adds	r3, r7, #1
 8001a68:	d0f3      	beq.n	0x8001a52
 8001a6a:	f7fe ff0f 	bl	0x800088c
 8001a6e:	eba0 000a 	sub.w	r0, r0, sl
 8001a72:	42a8      	cmp	r0, r5
 8001a74:	d329      	bcc.n	0x8001aca
 8001a76:	6823      	ldr	r3, [r4, #0]
 8001a78:	685a      	ldr	r2, [r3, #4]
 8001a7a:	f022 02e0 	bic.w	r2, r2, #224	@ 0xe0
 8001a7e:	605a      	str	r2, [r3, #4]
 8001a80:	6862      	ldr	r2, [r4, #4]
 8001a82:	f5b2 7f82 	cmp.w	r2, #260	@ 0x104
 8001a86:	d10a      	bne.n	0x8001a9e
 8001a88:	68a2      	ldr	r2, [r4, #8]
 8001a8a:	f5b2 4f00 	cmp.w	r2, #32768	@ 0x8000
 8001a8e:	d002      	beq.n	0x8001a96
 8001a90:	f5b2 6f80 	cmp.w	r2, #1024	@ 0x400
 8001a94:	d103      	bne.n	0x8001a9e
 8001a96:	681a      	ldr	r2, [r3, #0]
 8001a98:	f022 0240 	bic.w	r2, r2, #64	@ 0x40
 8001a9c:	601a      	str	r2, [r3, #0]
 8001a9e:	6aa2      	ldr	r2, [r4, #40]	@ 0x28
 8001aa0:	f5b2 5f00 	cmp.w	r2, #8192	@ 0x2000
 8001aa4:	d107      	bne.n	0x8001ab6
 8001aa6:	681a      	ldr	r2, [r3, #0]
 8001aa8:	f422 5200 	bic.w	r2, r2, #8192	@ 0x2000
 8001aac:	601a      	str	r2, [r3, #0]
 8001aae:	681a      	ldr	r2, [r3, #0]
 8001ab0:	f442 5200 	orr.w	r2, r2, #8192	@ 0x2000
 8001ab4:	601a      	str	r2, [r3, #0]
 8001ab6:	2301      	movs	r3, #1
 8001ab8:	f884 3051 	strb.w	r3, [r4, #81]	@ 0x51
 8001abc:	2300      	movs	r3, #0
 8001abe:	2003      	movs	r0, #3
 8001ac0:	f884 3050 	strb.w	r3, [r4, #80]	@ 0x50
 8001ac4:	b002      	add	sp, #8
 8001ac6:	e8bd 87f0 	ldmia.w	sp!, {r4, r5, r6, r7, r8, r9, sl, pc}
 8001aca:	9a01      	ldr	r2, [sp, #4]
 8001acc:	9b01      	ldr	r3, [sp, #4]
 8001ace:	2a00      	cmp	r2, #0
 8001ad0:	f103 33ff 	add.w	r3, r3, #4294967295	@ 0xffffffff
 8001ad4:	bf08      	it	eq
 8001ad6:	4615      	moveq	r5, r2
 8001ad8:	9301      	str	r3, [sp, #4]
 8001ada:	e7b9      	b.n	0x8001a50
 8001adc:	0000      	movs	r0, r0
 8001ade:	2000      	movs	r0, #0
 8001ae0:	b573      	push	{r0, r1, r4, r5, r6, lr}
 8001ae2:	460b      	mov	r3, r1
 8001ae4:	9200      	str	r2, [sp, #0]
 8001ae6:	460d      	mov	r5, r1
 8001ae8:	4616      	mov	r6, r2
 8001aea:	2102      	movs	r1, #2
 8001aec:	2201      	movs	r2, #1
 8001aee:	4604      	mov	r4, r0
 8001af0:	f7ff ff9a 	bl	0x8001a28
 8001af4:	4602      	mov	r2, r0
 8001af6:	b128      	cbz	r0, 0x8001b04
 8001af8:	6d63      	ldr	r3, [r4, #84]	@ 0x54
 8001afa:	2003      	movs	r0, #3
 8001afc:	f043 0320 	orr.w	r3, r3, #32
 8001b00:	6563      	str	r3, [r4, #84]	@ 0x54
 8001b02:	e007      	b.n	0x8001b14
 8001b04:	462b      	mov	r3, r5
 8001b06:	2180      	movs	r1, #128	@ 0x80
 8001b08:	4620      	mov	r0, r4
 8001b0a:	9600      	str	r6, [sp, #0]
 8001b0c:	f7ff ff8c 	bl	0x8001a28
 8001b10:	2800      	cmp	r0, #0
 8001b12:	d1f1      	bne.n	0x8001af8
 8001b14:	b002      	add	sp, #8
 8001b16:	bd70      	pop	{r4, r5, r6, pc}
 8001b18:	b510      	push	{r4, lr}
 8001b1a:	4604      	mov	r4, r0
 8001b1c:	2800      	cmp	r0, #0
 8001b1e:	d051      	beq.n	0x8001bc4
 8001b20:	6a43      	ldr	r3, [r0, #36]	@ 0x24
 8001b22:	2b00      	cmp	r3, #0
 8001b24:	d14a      	bne.n	0x8001bbc
 8001b26:	6842      	ldr	r2, [r0, #4]
 8001b28:	f5b2 7f82 	cmp.w	r2, #260	@ 0x104
 8001b2c:	d000      	beq.n	0x8001b30
 8001b2e:	61c3      	str	r3, [r0, #28]
 8001b30:	2300      	movs	r3, #0
 8001b32:	62a3      	str	r3, [r4, #40]	@ 0x28
 8001b34:	f894 3051 	ldrb.w	r3, [r4, #81]	@ 0x51
 8001b38:	f003 02ff 	and.w	r2, r3, #255	@ 0xff
 8001b3c:	b923      	cbnz	r3, 0x8001b48
 8001b3e:	4620      	mov	r0, r4
 8001b40:	f884 2050 	strb.w	r2, [r4, #80]	@ 0x50
 8001b44:	f7fe fdb6 	bl	0x80006b4
 8001b48:	2302      	movs	r3, #2
 8001b4a:	6822      	ldr	r2, [r4, #0]
 8001b4c:	f884 3051 	strb.w	r3, [r4, #81]	@ 0x51
 8001b50:	6813      	ldr	r3, [r2, #0]
 8001b52:	68a0      	ldr	r0, [r4, #8]
 8001b54:	f023 0340 	bic.w	r3, r3, #64	@ 0x40
 8001b58:	6013      	str	r3, [r2, #0]
 8001b5a:	6863      	ldr	r3, [r4, #4]
 8001b5c:	f400 4004 	and.w	r0, r0, #33792	@ 0x8400
 8001b60:	f403 7382 	and.w	r3, r3, #260	@ 0x104
 8001b64:	4303      	orrs	r3, r0
 8001b66:	68e0      	ldr	r0, [r4, #12]
 8001b68:	69a1      	ldr	r1, [r4, #24]
 8001b6a:	f400 6000 	and.w	r0, r0, #2048	@ 0x800
 8001b6e:	4303      	orrs	r3, r0
 8001b70:	6920      	ldr	r0, [r4, #16]
 8001b72:	f000 0002 	and.w	r0, r0, #2
 8001b76:	4303      	orrs	r3, r0
 8001b78:	6960      	ldr	r0, [r4, #20]
 8001b7a:	f000 0001 	and.w	r0, r0, #1
 8001b7e:	4303      	orrs	r3, r0
 8001b80:	f401 7000 	and.w	r0, r1, #512	@ 0x200
 8001b84:	4303      	orrs	r3, r0
 8001b86:	69e0      	ldr	r0, [r4, #28]
 8001b88:	0c09      	lsrs	r1, r1, #16
 8001b8a:	f000 0038 	and.w	r0, r0, #56	@ 0x38
 8001b8e:	4303      	orrs	r3, r0
 8001b90:	6a20      	ldr	r0, [r4, #32]
 8001b92:	f001 0104 	and.w	r1, r1, #4
 8001b96:	f000 0080 	and.w	r0, r0, #128	@ 0x80
 8001b9a:	4303      	orrs	r3, r0
 8001b9c:	6aa0      	ldr	r0, [r4, #40]	@ 0x28
 8001b9e:	f400 5000 	and.w	r0, r0, #8192	@ 0x2000
 8001ba2:	4303      	orrs	r3, r0
 8001ba4:	6013      	str	r3, [r2, #0]
 8001ba6:	6051      	str	r1, [r2, #4]
 8001ba8:	69d3      	ldr	r3, [r2, #28]
 8001baa:	2000      	movs	r0, #0
 8001bac:	f423 6300 	bic.w	r3, r3, #2048	@ 0x800
 8001bb0:	61d3      	str	r3, [r2, #28]
 8001bb2:	2301      	movs	r3, #1
 8001bb4:	6560      	str	r0, [r4, #84]	@ 0x54
 8001bb6:	f884 3051 	strb.w	r3, [r4, #81]	@ 0x51
 8001bba:	bd10      	pop	{r4, pc}
 8001bbc:	2300      	movs	r3, #0
 8001bbe:	e9c0 3304 	strd	r3, r3, [r0, #16]
 8001bc2:	e7b5      	b.n	0x8001b30
 8001bc4:	2001      	movs	r0, #1
 8001bc6:	e7f8      	b.n	0x8001bba
 8001bc8:	e92d 43f7 	stmdb	sp!, {r0, r1, r2, r4, r5, r6, r7, r8, r9, lr}
 8001bcc:	4604      	mov	r4, r0
 8001bce:	461f      	mov	r7, r3
 8001bd0:	460d      	mov	r5, r1
 8001bd2:	4690      	mov	r8, r2
 8001bd4:	f7fe fe5a 	bl	0x800088c
 8001bd8:	f894 3051 	ldrb.w	r3, [r4, #81]	@ 0x51
 8001bdc:	4681      	mov	r9, r0
 8001bde:	2b01      	cmp	r3, #1
 8001be0:	b2d8      	uxtb	r0, r3
 8001be2:	f040 809f 	bne.w	0x8001d24
 8001be6:	2d00      	cmp	r5, #0
 8001be8:	d074      	beq.n	0x8001cd4
 8001bea:	f1b8 0f00 	cmp.w	r8, #0
 8001bee:	d071      	beq.n	0x8001cd4
 8001bf0:	f894 3050 	ldrb.w	r3, [r4, #80]	@ 0x50
 8001bf4:	2b01      	cmp	r3, #1
 8001bf6:	f000 8095 	beq.w	0x8001d24
 8001bfa:	2303      	movs	r3, #3
 8001bfc:	f884 3051 	strb.w	r3, [r4, #81]	@ 0x51
 8001c00:	2300      	movs	r3, #0
 8001c02:	6563      	str	r3, [r4, #84]	@ 0x54
 8001c04:	e9c4 3310 	strd	r3, r3, [r4, #64]	@ 0x40
 8001c08:	f8a4 8036 	strh.w	r8, [r4, #54]	@ 0x36
 8001c0c:	63a3      	str	r3, [r4, #56]	@ 0x38
 8001c0e:	87a3      	strh	r3, [r4, #60]	@ 0x3c
 8001c10:	87e3      	strh	r3, [r4, #62]	@ 0x3e
 8001c12:	68a3      	ldr	r3, [r4, #8]
 8001c14:	6826      	ldr	r6, [r4, #0]
 8001c16:	f5b3 4f00 	cmp.w	r3, #32768	@ 0x8000
 8001c1a:	f884 0050 	strb.w	r0, [r4, #80]	@ 0x50
 8001c1e:	6325      	str	r5, [r4, #48]	@ 0x30
 8001c20:	f8a4 8034 	strh.w	r8, [r4, #52]	@ 0x34
 8001c24:	d107      	bne.n	0x8001c36
 8001c26:	6833      	ldr	r3, [r6, #0]
 8001c28:	f023 0340 	bic.w	r3, r3, #64	@ 0x40
 8001c2c:	6033      	str	r3, [r6, #0]
 8001c2e:	6833      	ldr	r3, [r6, #0]
 8001c30:	f443 4380 	orr.w	r3, r3, #16384	@ 0x4000
 8001c34:	6033      	str	r3, [r6, #0]
 8001c36:	6833      	ldr	r3, [r6, #0]
 8001c38:	68e2      	ldr	r2, [r4, #12]
 8001c3a:	065b      	lsls	r3, r3, #25
 8001c3c:	bf5e      	ittt	pl
 8001c3e:	6833      	ldrpl	r3, [r6, #0]
 8001c40:	f043 0340 	orrpl.w	r3, r3, #64	@ 0x40
 8001c44:	6033      	strpl	r3, [r6, #0]
 8001c46:	f5b2 6f00 	cmp.w	r2, #2048	@ 0x800
 8001c4a:	6863      	ldr	r3, [r4, #4]
 8001c4c:	d145      	bne.n	0x8001cda
 8001c4e:	b113      	cbz	r3, 0x8001c56
 8001c50:	f1b8 0f01 	cmp.w	r8, #1
 8001c54:	d107      	bne.n	0x8001c66
 8001c56:	f835 3b02 	ldrh.w	r3, [r5], #2
 8001c5a:	60f3      	str	r3, [r6, #12]
 8001c5c:	6325      	str	r5, [r4, #48]	@ 0x30
 8001c5e:	8ee3      	ldrh	r3, [r4, #54]	@ 0x36
 8001c60:	3b01      	subs	r3, #1
 8001c62:	b29b      	uxth	r3, r3
 8001c64:	86e3      	strh	r3, [r4, #54]	@ 0x36
 8001c66:	8ee3      	ldrh	r3, [r4, #54]	@ 0x36
 8001c68:	b29b      	uxth	r3, r3
 8001c6a:	b9d3      	cbnz	r3, 0x8001ca2
 8001c6c:	464a      	mov	r2, r9
 8001c6e:	4639      	mov	r1, r7
 8001c70:	4620      	mov	r0, r4
 8001c72:	f7ff ff35 	bl	0x8001ae0
 8001c76:	2800      	cmp	r0, #0
 8001c78:	d151      	bne.n	0x8001d1e
 8001c7a:	68a3      	ldr	r3, [r4, #8]
 8001c7c:	b933      	cbnz	r3, 0x8001c8c
 8001c7e:	9301      	str	r3, [sp, #4]
 8001c80:	6823      	ldr	r3, [r4, #0]
 8001c82:	68da      	ldr	r2, [r3, #12]
 8001c84:	9201      	str	r2, [sp, #4]
 8001c86:	689b      	ldr	r3, [r3, #8]
 8001c88:	9301      	str	r3, [sp, #4]
 8001c8a:	9b01      	ldr	r3, [sp, #4]
 8001c8c:	2301      	movs	r3, #1
 8001c8e:	f884 3051 	strb.w	r3, [r4, #81]	@ 0x51
 8001c92:	2300      	movs	r3, #0
 8001c94:	6d60      	ldr	r0, [r4, #84]	@ 0x54
 8001c96:	f884 3050 	strb.w	r3, [r4, #80]	@ 0x50
 8001c9a:	1ac0      	subs	r0, r0, r3
 8001c9c:	bf18      	it	ne
 8001c9e:	2001      	movne	r0, #1
 8001ca0:	e018      	b.n	0x8001cd4
 8001ca2:	6822      	ldr	r2, [r4, #0]
 8001ca4:	6893      	ldr	r3, [r2, #8]
 8001ca6:	0798      	lsls	r0, r3, #30
 8001ca8:	d505      	bpl.n	0x8001cb6
 8001caa:	6b23      	ldr	r3, [r4, #48]	@ 0x30
 8001cac:	f833 1b02 	ldrh.w	r1, [r3], #2
 8001cb0:	60d1      	str	r1, [r2, #12]
 8001cb2:	6323      	str	r3, [r4, #48]	@ 0x30
 8001cb4:	e7d3      	b.n	0x8001c5e
 8001cb6:	f7fe fde9 	bl	0x800088c
 8001cba:	eba0 0009 	sub.w	r0, r0, r9
 8001cbe:	42b8      	cmp	r0, r7
 8001cc0:	d3d1      	bcc.n	0x8001c66
 8001cc2:	1c79      	adds	r1, r7, #1
 8001cc4:	d0cf      	beq.n	0x8001c66
 8001cc6:	2301      	movs	r3, #1
 8001cc8:	f884 3051 	strb.w	r3, [r4, #81]	@ 0x51
 8001ccc:	2300      	movs	r3, #0
 8001cce:	2003      	movs	r0, #3
 8001cd0:	f884 3050 	strb.w	r3, [r4, #80]	@ 0x50
 8001cd4:	b003      	add	sp, #12
 8001cd6:	e8bd 83f0 	ldmia.w	sp!, {r4, r5, r6, r7, r8, r9, pc}
 8001cda:	b113      	cbz	r3, 0x8001ce2
 8001cdc:	f1b8 0f01 	cmp.w	r8, #1
 8001ce0:	d108      	bne.n	0x8001cf4
 8001ce2:	782b      	ldrb	r3, [r5, #0]
 8001ce4:	7333      	strb	r3, [r6, #12]
 8001ce6:	6b23      	ldr	r3, [r4, #48]	@ 0x30
 8001ce8:	3301      	adds	r3, #1
 8001cea:	6323      	str	r3, [r4, #48]	@ 0x30
 8001cec:	8ee3      	ldrh	r3, [r4, #54]	@ 0x36
 8001cee:	3b01      	subs	r3, #1
 8001cf0:	b29b      	uxth	r3, r3
 8001cf2:	86e3      	strh	r3, [r4, #54]	@ 0x36
 8001cf4:	8ee3      	ldrh	r3, [r4, #54]	@ 0x36
 8001cf6:	b29b      	uxth	r3, r3
 8001cf8:	2b00      	cmp	r3, #0
 8001cfa:	d0b7      	beq.n	0x8001c6c
 8001cfc:	6823      	ldr	r3, [r4, #0]
 8001cfe:	689a      	ldr	r2, [r3, #8]
 8001d00:	0792      	lsls	r2, r2, #30
 8001d02:	d503      	bpl.n	0x8001d0c
 8001d04:	6b22      	ldr	r2, [r4, #48]	@ 0x30
 8001d06:	7812      	ldrb	r2, [r2, #0]
 8001d08:	731a      	strb	r2, [r3, #12]
 8001d0a:	e7ec      	b.n	0x8001ce6
 8001d0c:	f7fe fdbe 	bl	0x800088c
 8001d10:	eba0 0009 	sub.w	r0, r0, r9
 8001d14:	42b8      	cmp	r0, r7
 8001d16:	d3ed      	bcc.n	0x8001cf4
 8001d18:	1c7b      	adds	r3, r7, #1
 8001d1a:	d0eb      	beq.n	0x8001cf4
 8001d1c:	e7d3      	b.n	0x8001cc6
 8001d1e:	2320      	movs	r3, #32
 8001d20:	6563      	str	r3, [r4, #84]	@ 0x54
 8001d22:	e7aa      	b.n	0x8001c7a
 8001d24:	2002      	movs	r0, #2
 8001d26:	e7d5      	b.n	0x8001cd4
 8001d28:	2300      	movs	r3, #0
 8001d2a:	b510      	push	{r4, lr}
 8001d2c:	4604      	mov	r4, r0
 8001d2e:	e9c0 3300 	strd	r3, r3, [r0]
 8001d32:	e9c0 3304 	strd	r3, r3, [r0, #16]
 8001d36:	6083      	str	r3, [r0, #8]
 8001d38:	8181      	strh	r1, [r0, #12]
 8001d3a:	6643      	str	r3, [r0, #100]	@ 0x64
 8001d3c:	81c2      	strh	r2, [r0, #14]
 8001d3e:	6183      	str	r3, [r0, #24]
 8001d40:	4619      	mov	r1, r3
 8001d42:	2208      	movs	r2, #8
 8001d44:	305c      	adds	r0, #92	@ 0x5c
 8001d46:	f000 f90f 	bl	0x8001f68
 8001d4a:	4b0d      	ldr	r3, [pc, #52]	@ (0x8001d80)
 8001d4c:	6224      	str	r4, [r4, #32]
 8001d4e:	6263      	str	r3, [r4, #36]	@ 0x24
 8001d50:	4b0c      	ldr	r3, [pc, #48]	@ (0x8001d84)
 8001d52:	62a3      	str	r3, [r4, #40]	@ 0x28
 8001d54:	4b0c      	ldr	r3, [pc, #48]	@ (0x8001d88)
 8001d56:	62e3      	str	r3, [r4, #44]	@ 0x2c
 8001d58:	4b0c      	ldr	r3, [pc, #48]	@ (0x8001d8c)
 8001d5a:	6323      	str	r3, [r4, #48]	@ 0x30
 8001d5c:	4b0c      	ldr	r3, [pc, #48]	@ (0x8001d90)
 8001d5e:	429c      	cmp	r4, r3
 8001d60:	d006      	beq.n	0x8001d70
 8001d62:	f103 0268 	add.w	r2, r3, #104	@ 0x68
 8001d66:	4294      	cmp	r4, r2
 8001d68:	d002      	beq.n	0x8001d70
 8001d6a:	33d0      	adds	r3, #208	@ 0xd0
 8001d6c:	429c      	cmp	r4, r3
 8001d6e:	d105      	bne.n	0x8001d7c
 8001d70:	f104 0058 	add.w	r0, r4, #88	@ 0x58
 8001d74:	e8bd 4010 	ldmia.w	sp!, {r4, lr}
 8001d78:	f000 b928 	b.w	0x8001fcc
 8001d7c:	bd10      	pop	{r4, pc}
 8001d7e:	bf00      	nop
 8001d80:	2281      	movs	r2, #129	@ 0x81
 8001d82:	0800      	lsrs	r0, r0, #32
 8001d84:	22a3      	movs	r2, #163	@ 0xa3
 8001d86:	0800      	lsrs	r0, r0, #32
 8001d88:	22db      	movs	r2, #219	@ 0xdb
 8001d8a:	0800      	lsrs	r0, r0, #32
 8001d8c:	22ff      	movs	r2, #255	@ 0xff
 8001d8e:	0800      	lsrs	r0, r0, #32
 8001d90:	0160      	lsls	r0, r4, #5
 8001d92:	2000      	movs	r0, #0
 8001d94:	4a02      	ldr	r2, [pc, #8]	@ (0x8001da0)
 8001d96:	4903      	ldr	r1, [pc, #12]	@ (0x8001da4)
 8001d98:	4803      	ldr	r0, [pc, #12]	@ (0x8001da8)
 8001d9a:	f000 b869 	b.w	0x8001e70
 8001d9e:	bf00      	nop
 8001da0:	000c      	movs	r4, r1
 8001da2:	2000      	movs	r0, #0
 8001da4:	2219      	movs	r2, #25
 8001da6:	0800      	lsrs	r0, r0, #32
 8001da8:	001c      	movs	r4, r3
 8001daa:	2000      	movs	r0, #0
 8001dac:	6841      	ldr	r1, [r0, #4]
 8001dae:	4b0c      	ldr	r3, [pc, #48]	@ (0x8001de0)
 8001db0:	b510      	push	{r4, lr}
 8001db2:	4299      	cmp	r1, r3
 8001db4:	4604      	mov	r4, r0
 8001db6:	d001      	beq.n	0x8001dbc
 8001db8:	f000 fa2e 	bl	0x8002218
 8001dbc:	68a1      	ldr	r1, [r4, #8]
 8001dbe:	4b09      	ldr	r3, [pc, #36]	@ (0x8001de4)
 8001dc0:	4299      	cmp	r1, r3
 8001dc2:	d002      	beq.n	0x8001dca
 8001dc4:	4620      	mov	r0, r4
 8001dc6:	f000 fa27 	bl	0x8002218
 8001dca:	68e1      	ldr	r1, [r4, #12]
 8001dcc:	4b06      	ldr	r3, [pc, #24]	@ (0x8001de8)
 8001dce:	4299      	cmp	r1, r3
 8001dd0:	d004      	beq.n	0x8001ddc
 8001dd2:	4620      	mov	r0, r4
 8001dd4:	e8bd 4010 	ldmia.w	sp!, {r4, lr}
 8001dd8:	f000 ba1e 	b.w	0x8002218
 8001ddc:	bd10      	pop	{r4, pc}
 8001dde:	bf00      	nop
 8001de0:	0160      	lsls	r0, r4, #5
 8001de2:	2000      	movs	r0, #0
 8001de4:	01c8      	lsls	r0, r1, #7
 8001de6:	2000      	movs	r0, #0
 8001de8:	0230      	lsls	r0, r6, #8
 8001dea:	2000      	movs	r0, #0
 8001dec:	b510      	push	{r4, lr}
 8001dee:	4b0b      	ldr	r3, [pc, #44]	@ (0x8001e1c)
 8001df0:	4c0b      	ldr	r4, [pc, #44]	@ (0x8001e20)
 8001df2:	4a0c      	ldr	r2, [pc, #48]	@ (0x8001e24)
 8001df4:	4620      	mov	r0, r4
 8001df6:	601a      	str	r2, [r3, #0]
 8001df8:	2104      	movs	r1, #4
 8001dfa:	2200      	movs	r2, #0
 8001dfc:	f7ff ff94 	bl	0x8001d28
 8001e00:	f104 0068 	add.w	r0, r4, #104	@ 0x68
 8001e04:	2201      	movs	r2, #1
 8001e06:	2109      	movs	r1, #9
 8001e08:	f7ff ff8e 	bl	0x8001d28
 8001e0c:	f104 00d0 	add.w	r0, r4, #208	@ 0xd0
 8001e10:	2202      	movs	r2, #2
 8001e12:	e8bd 4010 	ldmia.w	sp!, {r4, lr}
 8001e16:	2112      	movs	r1, #18
 8001e18:	f7ff bf86 	b.w	0x8001d28
 8001e1c:	0298      	lsls	r0, r3, #10
 8001e1e:	2000      	movs	r0, #0
 8001e20:	0160      	lsls	r0, r4, #5
 8001e22:	2000      	movs	r0, #0
 8001e24:	1d95      	adds	r5, r2, #6
 8001e26:	0800      	lsrs	r0, r0, #32
 8001e28:	4801      	ldr	r0, [pc, #4]	@ (0x8001e30)
 8001e2a:	f000 b8d0 	b.w	0x8001fce
 8001e2e:	bf00      	nop
 8001e30:	029d      	lsls	r5, r3, #10
 8001e32:	2000      	movs	r0, #0
 8001e34:	4801      	ldr	r0, [pc, #4]	@ (0x8001e3c)
 8001e36:	f000 b8cb 	b.w	0x8001fd0
 8001e3a:	bf00      	nop
 8001e3c:	029d      	lsls	r5, r3, #10
 8001e3e:	2000      	movs	r0, #0
 8001e40:	b510      	push	{r4, lr}
 8001e42:	4604      	mov	r4, r0
 8001e44:	f7ff fff0 	bl	0x8001e28
 8001e48:	6a23      	ldr	r3, [r4, #32]
 8001e4a:	b11b      	cbz	r3, 0x8001e54
 8001e4c:	e8bd 4010 	ldmia.w	sp!, {r4, lr}
 8001e50:	f7ff bff0 	b.w	0x8001e34
 8001e54:	4b04      	ldr	r3, [pc, #16]	@ (0x8001e68)
 8001e56:	6223      	str	r3, [r4, #32]
 8001e58:	4b04      	ldr	r3, [pc, #16]	@ (0x8001e6c)
 8001e5a:	681b      	ldr	r3, [r3, #0]
 8001e5c:	2b00      	cmp	r3, #0
 8001e5e:	d1f5      	bne.n	0x8001e4c
 8001e60:	f7ff ffc4 	bl	0x8001dec
 8001e64:	e7f2      	b.n	0x8001e4c
 8001e66:	bf00      	nop
 8001e68:	1dad      	adds	r5, r5, #6
 8001e6a:	0800      	lsrs	r0, r0, #32
 8001e6c:	0298      	lsls	r0, r3, #10
 8001e6e:	2000      	movs	r0, #0
 8001e70:	e92d 43f8 	stmdb	sp!, {r3, r4, r5, r6, r7, r8, r9, lr}
 8001e74:	4607      	mov	r7, r0
 8001e76:	4688      	mov	r8, r1
 8001e78:	4614      	mov	r4, r2
 8001e7a:	2600      	movs	r6, #0
 8001e7c:	e9d4 9501 	ldrd	r9, r5, [r4, #4]
 8001e80:	f1b9 0901 	subs.w	r9, r9, #1
 8001e84:	d505      	bpl.n	0x8001e92
 8001e86:	6824      	ldr	r4, [r4, #0]
 8001e88:	2c00      	cmp	r4, #0
 8001e8a:	d1f7      	bne.n	0x8001e7c
 8001e8c:	4630      	mov	r0, r6
 8001e8e:	e8bd 83f8 	ldmia.w	sp!, {r3, r4, r5, r6, r7, r8, r9, pc}
 8001e92:	89ab      	ldrh	r3, [r5, #12]
 8001e94:	2b01      	cmp	r3, #1
 8001e96:	d907      	bls.n	0x8001ea8
 8001e98:	f9b5 300e 	ldrsh.w	r3, [r5, #14]
 8001e9c:	3301      	adds	r3, #1
 8001e9e:	d003      	beq.n	0x8001ea8
 8001ea0:	4629      	mov	r1, r5
 8001ea2:	4638      	mov	r0, r7
 8001ea4:	47c0      	blx	r8
 8001ea6:	4306      	orrs	r6, r0
 8001ea8:	3568      	adds	r5, #104	@ 0x68
 8001eaa:	e7e9      	b.n	0x8001e80
 8001eac:	6a03      	ldr	r3, [r0, #32]
 8001eae:	b570      	push	{r4, r5, r6, lr}
 8001eb0:	4605      	mov	r5, r0
 8001eb2:	460e      	mov	r6, r1
 8001eb4:	6884      	ldr	r4, [r0, #8]
 8001eb6:	b90b      	cbnz	r3, 0x8001ebc
 8001eb8:	f7ff ffc2 	bl	0x8001e40
 8001ebc:	6e63      	ldr	r3, [r4, #100]	@ 0x64
 8001ebe:	07db      	lsls	r3, r3, #31
 8001ec0:	d405      	bmi.n	0x8001ece
 8001ec2:	89a3      	ldrh	r3, [r4, #12]
 8001ec4:	0598      	lsls	r0, r3, #22
 8001ec6:	d402      	bmi.n	0x8001ece
 8001ec8:	6da0      	ldr	r0, [r4, #88]	@ 0x58
 8001eca:	f000 f880 	bl	0x8001fce
 8001ece:	89a3      	ldrh	r3, [r4, #12]
 8001ed0:	0719      	lsls	r1, r3, #28
 8001ed2:	d502      	bpl.n	0x8001eda
 8001ed4:	6923      	ldr	r3, [r4, #16]
 8001ed6:	2b00      	cmp	r3, #0
 8001ed8:	d135      	bne.n	0x8001f46
 8001eda:	4621      	mov	r1, r4
 8001edc:	4628      	mov	r0, r5
 8001ede:	f000 fa51 	bl	0x8002384
 8001ee2:	b380      	cbz	r0, 0x8001f46
 8001ee4:	f04f 35ff 	mov.w	r5, #4294967295	@ 0xffffffff
 8001ee8:	6e63      	ldr	r3, [r4, #100]	@ 0x64
 8001eea:	07da      	lsls	r2, r3, #31
 8001eec:	d405      	bmi.n	0x8001efa
 8001eee:	89a3      	ldrh	r3, [r4, #12]
 8001ef0:	059b      	lsls	r3, r3, #22
 8001ef2:	d402      	bmi.n	0x8001efa
 8001ef4:	6da0      	ldr	r0, [r4, #88]	@ 0x58
 8001ef6:	f000 f86b 	bl	0x8001fd0
 8001efa:	4628      	mov	r0, r5
 8001efc:	bd70      	pop	{r4, r5, r6, pc}
 8001efe:	2b00      	cmp	r3, #0
 8001f00:	da04      	bge.n	0x8001f0c
 8001f02:	69a2      	ldr	r2, [r4, #24]
 8001f04:	429a      	cmp	r2, r3
 8001f06:	dc17      	bgt.n	0x8001f38
 8001f08:	290a      	cmp	r1, #10
 8001f0a:	d015      	beq.n	0x8001f38
 8001f0c:	6823      	ldr	r3, [r4, #0]
 8001f0e:	1c5a      	adds	r2, r3, #1
 8001f10:	6022      	str	r2, [r4, #0]
 8001f12:	7019      	strb	r1, [r3, #0]
 8001f14:	68a3      	ldr	r3, [r4, #8]
 8001f16:	f816 1f01 	ldrb.w	r1, [r6, #1]!
 8001f1a:	3b01      	subs	r3, #1
 8001f1c:	60a3      	str	r3, [r4, #8]
 8001f1e:	2900      	cmp	r1, #0
 8001f20:	d1ed      	bne.n	0x8001efe
 8001f22:	2b00      	cmp	r3, #0
 8001f24:	da11      	bge.n	0x8001f4a
 8001f26:	4622      	mov	r2, r4
 8001f28:	210a      	movs	r1, #10
 8001f2a:	4628      	mov	r0, r5
 8001f2c:	f000 f9eb 	bl	0x8002306
 8001f30:	3001      	adds	r0, #1
 8001f32:	d0d7      	beq.n	0x8001ee4
 8001f34:	250a      	movs	r5, #10
 8001f36:	e7d7      	b.n	0x8001ee8
 8001f38:	4622      	mov	r2, r4
 8001f3a:	4628      	mov	r0, r5
 8001f3c:	f000 f9e3 	bl	0x8002306
 8001f40:	3001      	adds	r0, #1
 8001f42:	d1e7      	bne.n	0x8001f14
 8001f44:	e7ce      	b.n	0x8001ee4
 8001f46:	3e01      	subs	r6, #1
 8001f48:	e7e4      	b.n	0x8001f14
 8001f4a:	6823      	ldr	r3, [r4, #0]
 8001f4c:	1c5a      	adds	r2, r3, #1
 8001f4e:	6022      	str	r2, [r4, #0]
 8001f50:	220a      	movs	r2, #10
 8001f52:	701a      	strb	r2, [r3, #0]
 8001f54:	e7ee      	b.n	0x8001f34
 8001f56:	0000      	movs	r0, r0
 8001f58:	4b02      	ldr	r3, [pc, #8]	@ (0x8001f64)
 8001f5a:	4601      	mov	r1, r0
 8001f5c:	6818      	ldr	r0, [r3, #0]
 8001f5e:	f7ff bfa5 	b.w	0x8001eac
 8001f62:	bf00      	nop
 8001f64:	0018      	movs	r0, r3
 8001f66:	2000      	movs	r0, #0
 8001f68:	4603      	mov	r3, r0
 8001f6a:	4402      	add	r2, r0
 8001f6c:	4293      	cmp	r3, r2
 8001f6e:	d100      	bne.n	0x8001f72
 8001f70:	4770      	bx	lr
 8001f72:	f803 1b01 	strb.w	r1, [r3], #1
 8001f76:	e7f9      	b.n	0x8001f6c
 8001f78:	4b01      	ldr	r3, [pc, #4]	@ (0x8001f80)
 8001f7a:	6818      	ldr	r0, [r3, #0]
 8001f7c:	4770      	bx	lr
 8001f7e:	bf00      	nop
 8001f80:	0018      	movs	r0, r3
 8001f82:	2000      	movs	r0, #0
 8001f84:	b570      	push	{r4, r5, r6, lr}
 8001f86:	2600      	movs	r6, #0
 8001f88:	4d0c      	ldr	r5, [pc, #48]	@ (0x8001fbc)
 8001f8a:	4c0d      	ldr	r4, [pc, #52]	@ (0x8001fc0)
 8001f8c:	1b64      	subs	r4, r4, r5
 8001f8e:	10a4      	asrs	r4, r4, #2
 8001f90:	42a6      	cmp	r6, r4
 8001f92:	d109      	bne.n	0x8001fa8
 8001f94:	f000 fb6e 	bl	0x8002674
 8001f98:	2600      	movs	r6, #0
 8001f9a:	4d0a      	ldr	r5, [pc, #40]	@ (0x8001fc4)
 8001f9c:	4c0a      	ldr	r4, [pc, #40]	@ (0x8001fc8)
 8001f9e:	1b64      	subs	r4, r4, r5
 8001fa0:	10a4      	asrs	r4, r4, #2
 8001fa2:	42a6      	cmp	r6, r4
 8001fa4:	d105      	bne.n	0x8001fb2
 8001fa6:	bd70      	pop	{r4, r5, r6, pc}
 8001fa8:	f855 3b04 	ldr.w	r3, [r5], #4
 8001fac:	4798      	blx	r3
 8001fae:	3601      	adds	r6, #1
 8001fb0:	e7ee      	b.n	0x8001f90
 8001fb2:	f855 3b04 	ldr.w	r3, [r5], #4
 8001fb6:	4798      	blx	r3
 8001fb8:	3601      	adds	r6, #1
 8001fba:	e7f2      	b.n	0x8001fa2
 8001fbc:	26f4      	movs	r6, #244	@ 0xf4
 8001fbe:	0800      	lsrs	r0, r0, #32
 8001fc0:	26f4      	movs	r6, #244	@ 0xf4
 8001fc2:	0800      	lsrs	r0, r0, #32
 8001fc4:	26f4      	movs	r6, #244	@ 0xf4
 8001fc6:	0800      	lsrs	r0, r0, #32
 8001fc8:	26f8      	movs	r6, #248	@ 0xf8
 8001fca:	0800      	lsrs	r0, r0, #32
 8001fcc:	4770      	bx	lr
 8001fce:	4770      	bx	lr
 8001fd0:	4770      	bx	lr
 8001fd2:	0000      	movs	r0, r0
 8001fd4:	b570      	push	{r4, r5, r6, lr}
 8001fd6:	4e0f      	ldr	r6, [pc, #60]	@ (0x8002014)
 8001fd8:	460c      	mov	r4, r1
 8001fda:	6831      	ldr	r1, [r6, #0]
 8001fdc:	4605      	mov	r5, r0
 8001fde:	b911      	cbnz	r1, 0x8001fe6
 8001fe0:	f000 fabc 	bl	0x800255c
 8001fe4:	6030      	str	r0, [r6, #0]
 8001fe6:	4621      	mov	r1, r4
 8001fe8:	4628      	mov	r0, r5
 8001fea:	f000 fab7 	bl	0x800255c
 8001fee:	1c43      	adds	r3, r0, #1
 8001ff0:	d103      	bne.n	0x8001ffa
 8001ff2:	f04f 34ff 	mov.w	r4, #4294967295	@ 0xffffffff
 8001ff6:	4620      	mov	r0, r4
 8001ff8:	bd70      	pop	{r4, r5, r6, pc}
 8001ffa:	1cc4      	adds	r4, r0, #3
 8001ffc:	f024 0403 	bic.w	r4, r4, #3
 8002000:	42a0      	cmp	r0, r4
 8002002:	d0f8      	beq.n	0x8001ff6
 8002004:	1a21      	subs	r1, r4, r0
 8002006:	4628      	mov	r0, r5
 8002008:	f000 faa8 	bl	0x800255c
 800200c:	3001      	adds	r0, #1
 800200e:	d1f2      	bne.n	0x8001ff6
 8002010:	e7ef      	b.n	0x8001ff2
 8002012:	bf00      	nop
 8002014:	02a0      	lsls	r0, r4, #10
 8002016:	2000      	movs	r0, #0
 8002018:	e92d 43f8 	stmdb	sp!, {r3, r4, r5, r6, r7, r8, r9, lr}
 800201c:	1ccd      	adds	r5, r1, #3
 800201e:	f025 0503 	bic.w	r5, r5, #3
 8002022:	3508      	adds	r5, #8
 8002024:	2d0c      	cmp	r5, #12
 8002026:	bf38      	it	cc
 8002028:	250c      	movcc	r5, #12
 800202a:	2d00      	cmp	r5, #0
 800202c:	4606      	mov	r6, r0
 800202e:	db01      	blt.n	0x8002034
 8002030:	42a9      	cmp	r1, r5
 8002032:	d904      	bls.n	0x800203e
 8002034:	230c      	movs	r3, #12
 8002036:	6033      	str	r3, [r6, #0]
 8002038:	2000      	movs	r0, #0
 800203a:	e8bd 83f8 	ldmia.w	sp!, {r3, r4, r5, r6, r7, r8, r9, pc}
 800203e:	f8df 80d4 	ldr.w	r8, [pc, #212]	@ 0x8002114
 8002042:	f000 f911 	bl	0x8002268
 8002046:	f8d8 3000 	ldr.w	r3, [r8]
 800204a:	461c      	mov	r4, r3
 800204c:	bb44      	cbnz	r4, 0x80020a0
 800204e:	4629      	mov	r1, r5
 8002050:	4630      	mov	r0, r6
 8002052:	f7ff ffbf 	bl	0x8001fd4
 8002056:	1c43      	adds	r3, r0, #1
 8002058:	4604      	mov	r4, r0
 800205a:	d158      	bne.n	0x800210e
 800205c:	f8d8 4000 	ldr.w	r4, [r8]
 8002060:	4627      	mov	r7, r4
 8002062:	2f00      	cmp	r7, #0
 8002064:	d143      	bne.n	0x80020ee
 8002066:	2c00      	cmp	r4, #0
 8002068:	d04b      	beq.n	0x8002102
 800206a:	6823      	ldr	r3, [r4, #0]
 800206c:	4639      	mov	r1, r7
 800206e:	4630      	mov	r0, r6
 8002070:	eb04 0903 	add.w	r9, r4, r3
 8002074:	f000 fa72 	bl	0x800255c
 8002078:	4581      	cmp	r9, r0
 800207a:	d142      	bne.n	0x8002102
 800207c:	6821      	ldr	r1, [r4, #0]
 800207e:	4630      	mov	r0, r6
 8002080:	1a6d      	subs	r5, r5, r1
 8002082:	4629      	mov	r1, r5
 8002084:	f7ff ffa6 	bl	0x8001fd4
 8002088:	3001      	adds	r0, #1
 800208a:	d03a      	beq.n	0x8002102
 800208c:	6823      	ldr	r3, [r4, #0]
 800208e:	442b      	add	r3, r5
 8002090:	6023      	str	r3, [r4, #0]
 8002092:	f8d8 3000 	ldr.w	r3, [r8]
 8002096:	685a      	ldr	r2, [r3, #4]
 8002098:	bb62      	cbnz	r2, 0x80020f4
 800209a:	f8c8 7000 	str.w	r7, [r8]
 800209e:	e00f      	b.n	0x80020c0
 80020a0:	6822      	ldr	r2, [r4, #0]
 80020a2:	1b52      	subs	r2, r2, r5
 80020a4:	d420      	bmi.n	0x80020e8
 80020a6:	2a0b      	cmp	r2, #11
 80020a8:	d917      	bls.n	0x80020da
 80020aa:	1961      	adds	r1, r4, r5
 80020ac:	42a3      	cmp	r3, r4
 80020ae:	6025      	str	r5, [r4, #0]
 80020b0:	bf18      	it	ne
 80020b2:	6059      	strne	r1, [r3, #4]
 80020b4:	6863      	ldr	r3, [r4, #4]
 80020b6:	bf08      	it	eq
 80020b8:	f8c8 1000 	streq.w	r1, [r8]
 80020bc:	5162      	str	r2, [r4, r5]
 80020be:	604b      	str	r3, [r1, #4]
 80020c0:	4630      	mov	r0, r6
 80020c2:	f000 f8d7 	bl	0x8002274
 80020c6:	f104 000b 	add.w	r0, r4, #11
 80020ca:	1d23      	adds	r3, r4, #4
 80020cc:	f020 0007 	bic.w	r0, r0, #7
 80020d0:	1ac2      	subs	r2, r0, r3
 80020d2:	bf1c      	itt	ne
 80020d4:	1a1b      	subne	r3, r3, r0
 80020d6:	50a3      	strne	r3, [r4, r2]
 80020d8:	e7af      	b.n	0x800203a
 80020da:	6862      	ldr	r2, [r4, #4]
 80020dc:	42a3      	cmp	r3, r4
 80020de:	bf0c      	ite	eq
 80020e0:	f8c8 2000 	streq.w	r2, [r8]
 80020e4:	605a      	strne	r2, [r3, #4]
 80020e6:	e7eb      	b.n	0x80020c0
 80020e8:	4623      	mov	r3, r4
 80020ea:	6864      	ldr	r4, [r4, #4]
 80020ec:	e7ae      	b.n	0x800204c
 80020ee:	463c      	mov	r4, r7
 80020f0:	687f      	ldr	r7, [r7, #4]
 80020f2:	e7b6      	b.n	0x8002062
 80020f4:	461a      	mov	r2, r3
 80020f6:	685b      	ldr	r3, [r3, #4]
 80020f8:	42a3      	cmp	r3, r4
 80020fa:	d1fb      	bne.n	0x80020f4
 80020fc:	2300      	movs	r3, #0
 80020fe:	6053      	str	r3, [r2, #4]
 8002100:	e7de      	b.n	0x80020c0
 8002102:	230c      	movs	r3, #12
 8002104:	4630      	mov	r0, r6
 8002106:	6033      	str	r3, [r6, #0]
 8002108:	f000 f8b4 	bl	0x8002274
 800210c:	e794      	b.n	0x8002038
 800210e:	6005      	str	r5, [r0, #0]
 8002110:	e7d6      	b.n	0x80020c0
 8002112:	bf00      	nop
 8002114:	02a4      	lsls	r4, r4, #10
 8002116:	2000      	movs	r0, #0
 8002118:	f9b1 200c 	ldrsh.w	r2, [r1, #12]
 800211c:	b5f8      	push	{r3, r4, r5, r6, r7, lr}
 800211e:	0716      	lsls	r6, r2, #28
 8002120:	4605      	mov	r5, r0
 8002122:	460c      	mov	r4, r1
 8002124:	d454      	bmi.n	0x80021d0
 8002126:	684b      	ldr	r3, [r1, #4]
 8002128:	2b00      	cmp	r3, #0
 800212a:	dc02      	bgt.n	0x8002132
 800212c:	6c0b      	ldr	r3, [r1, #64]	@ 0x40
 800212e:	2b00      	cmp	r3, #0
 8002130:	dd48      	ble.n	0x80021c4
 8002132:	6ae6      	ldr	r6, [r4, #44]	@ 0x2c
 8002134:	2e00      	cmp	r6, #0
 8002136:	d045      	beq.n	0x80021c4
 8002138:	2300      	movs	r3, #0
 800213a:	f412 5280 	ands.w	r2, r2, #4096	@ 0x1000
 800213e:	682f      	ldr	r7, [r5, #0]
 8002140:	6a21      	ldr	r1, [r4, #32]
 8002142:	602b      	str	r3, [r5, #0]
 8002144:	d030      	beq.n	0x80021a8
 8002146:	6d62      	ldr	r2, [r4, #84]	@ 0x54
 8002148:	89a3      	ldrh	r3, [r4, #12]
 800214a:	0759      	lsls	r1, r3, #29
 800214c:	d505      	bpl.n	0x800215a
 800214e:	6863      	ldr	r3, [r4, #4]
 8002150:	1ad2      	subs	r2, r2, r3
 8002152:	6b63      	ldr	r3, [r4, #52]	@ 0x34
 8002154:	b10b      	cbz	r3, 0x800215a
 8002156:	6c23      	ldr	r3, [r4, #64]	@ 0x40
 8002158:	1ad2      	subs	r2, r2, r3
 800215a:	2300      	movs	r3, #0
 800215c:	4628      	mov	r0, r5
 800215e:	6ae6      	ldr	r6, [r4, #44]	@ 0x2c
 8002160:	6a21      	ldr	r1, [r4, #32]
 8002162:	47b0      	blx	r6
 8002164:	1c43      	adds	r3, r0, #1
 8002166:	89a3      	ldrh	r3, [r4, #12]
 8002168:	d106      	bne.n	0x8002178
 800216a:	6829      	ldr	r1, [r5, #0]
 800216c:	291d      	cmp	r1, #29
 800216e:	d82b      	bhi.n	0x80021c8
 8002170:	4a28      	ldr	r2, [pc, #160]	@ (0x8002214)
 8002172:	40ca      	lsrs	r2, r1
 8002174:	07d6      	lsls	r6, r2, #31
 8002176:	d527      	bpl.n	0x80021c8
 8002178:	2200      	movs	r2, #0
 800217a:	6062      	str	r2, [r4, #4]
 800217c:	6922      	ldr	r2, [r4, #16]
 800217e:	04d9      	lsls	r1, r3, #19
 8002180:	6022      	str	r2, [r4, #0]
 8002182:	d504      	bpl.n	0x800218e
 8002184:	1c42      	adds	r2, r0, #1
 8002186:	d101      	bne.n	0x800218c
 8002188:	682b      	ldr	r3, [r5, #0]
 800218a:	b903      	cbnz	r3, 0x800218e
 800218c:	6560      	str	r0, [r4, #84]	@ 0x54
 800218e:	6b61      	ldr	r1, [r4, #52]	@ 0x34
 8002190:	602f      	str	r7, [r5, #0]
 8002192:	b1b9      	cbz	r1, 0x80021c4
 8002194:	f104 0344 	add.w	r3, r4, #68	@ 0x44
 8002198:	4299      	cmp	r1, r3
 800219a:	d002      	beq.n	0x80021a2
 800219c:	4628      	mov	r0, r5
 800219e:	f000 fa21 	bl	0x80025e4
 80021a2:	2300      	movs	r3, #0
 80021a4:	6363      	str	r3, [r4, #52]	@ 0x34
 80021a6:	e00d      	b.n	0x80021c4
 80021a8:	2301      	movs	r3, #1
 80021aa:	4628      	mov	r0, r5
 80021ac:	47b0      	blx	r6
 80021ae:	4602      	mov	r2, r0
 80021b0:	1c50      	adds	r0, r2, #1
 80021b2:	d1c9      	bne.n	0x8002148
 80021b4:	682b      	ldr	r3, [r5, #0]
 80021b6:	2b00      	cmp	r3, #0
 80021b8:	d0c6      	beq.n	0x8002148
 80021ba:	2b1d      	cmp	r3, #29
 80021bc:	d001      	beq.n	0x80021c2
 80021be:	2b16      	cmp	r3, #22
 80021c0:	d11d      	bne.n	0x80021fe
 80021c2:	602f      	str	r7, [r5, #0]
 80021c4:	2000      	movs	r0, #0
 80021c6:	e021      	b.n	0x800220c
 80021c8:	f043 0340 	orr.w	r3, r3, #64	@ 0x40
 80021cc:	b21b      	sxth	r3, r3
 80021ce:	e01a      	b.n	0x8002206
 80021d0:	690f      	ldr	r7, [r1, #16]
 80021d2:	2f00      	cmp	r7, #0
 80021d4:	d0f6      	beq.n	0x80021c4
 80021d6:	0793      	lsls	r3, r2, #30
 80021d8:	bf18      	it	ne
 80021da:	2300      	movne	r3, #0
 80021dc:	680e      	ldr	r6, [r1, #0]
 80021de:	bf08      	it	eq
 80021e0:	694b      	ldreq	r3, [r1, #20]
 80021e2:	1bf6      	subs	r6, r6, r7
 80021e4:	600f      	str	r7, [r1, #0]
 80021e6:	608b      	str	r3, [r1, #8]
 80021e8:	2e00      	cmp	r6, #0
 80021ea:	ddeb      	ble.n	0x80021c4
 80021ec:	4633      	mov	r3, r6
 80021ee:	463a      	mov	r2, r7
 80021f0:	4628      	mov	r0, r5
 80021f2:	6a21      	ldr	r1, [r4, #32]
 80021f4:	f8d4 c028 	ldr.w	ip, [r4, #40]	@ 0x28
 80021f8:	47e0      	blx	ip
 80021fa:	2800      	cmp	r0, #0
 80021fc:	dc07      	bgt.n	0x800220e
 80021fe:	f9b4 300c 	ldrsh.w	r3, [r4, #12]
 8002202:	f043 0340 	orr.w	r3, r3, #64	@ 0x40
 8002206:	f04f 30ff 	mov.w	r0, #4294967295	@ 0xffffffff
 800220a:	81a3      	strh	r3, [r4, #12]
 800220c:	bdf8      	pop	{r3, r4, r5, r6, r7, pc}
 800220e:	4407      	add	r7, r0
 8002210:	1a36      	subs	r6, r6, r0
 8002212:	e7e9      	b.n	0x80021e8
 8002214:	0001      	movs	r1, r0
 8002216:	2040      	movs	r0, #64	@ 0x40
 8002218:	b538      	push	{r3, r4, r5, lr}
 800221a:	690b      	ldr	r3, [r1, #16]
 800221c:	4605      	mov	r5, r0
 800221e:	460c      	mov	r4, r1
 8002220:	b913      	cbnz	r3, 0x8002228
 8002222:	2500      	movs	r5, #0
 8002224:	4628      	mov	r0, r5
 8002226:	bd38      	pop	{r3, r4, r5, pc}
 8002228:	b118      	cbz	r0, 0x8002232
 800222a:	6a03      	ldr	r3, [r0, #32]
 800222c:	b90b      	cbnz	r3, 0x8002232
 800222e:	f7ff fe07 	bl	0x8001e40
 8002232:	f9b4 300c 	ldrsh.w	r3, [r4, #12]
 8002236:	2b00      	cmp	r3, #0
 8002238:	d0f3      	beq.n	0x8002222
 800223a:	6e62      	ldr	r2, [r4, #100]	@ 0x64
 800223c:	07d0      	lsls	r0, r2, #31
 800223e:	d404      	bmi.n	0x800224a
 8002240:	0599      	lsls	r1, r3, #22
 8002242:	d402      	bmi.n	0x800224a
 8002244:	6da0      	ldr	r0, [r4, #88]	@ 0x58
 8002246:	f7ff fec2 	bl	0x8001fce
 800224a:	4628      	mov	r0, r5
 800224c:	4621      	mov	r1, r4
 800224e:	f7ff ff63 	bl	0x8002118
 8002252:	6e63      	ldr	r3, [r4, #100]	@ 0x64
 8002254:	4605      	mov	r5, r0
 8002256:	07da      	lsls	r2, r3, #31
 8002258:	d4e4      	bmi.n	0x8002224
 800225a:	89a3      	ldrh	r3, [r4, #12]
 800225c:	059b      	lsls	r3, r3, #22
 800225e:	d4e1      	bmi.n	0x8002224
 8002260:	6da0      	ldr	r0, [r4, #88]	@ 0x58
 8002262:	f7ff feb5 	bl	0x8001fd0
 8002266:	e7dd      	b.n	0x8002224
 8002268:	4801      	ldr	r0, [pc, #4]	@ (0x8002270)
 800226a:	f7ff beb0 	b.w	0x8001fce
 800226e:	bf00      	nop
 8002270:	029c      	lsls	r4, r3, #10
 8002272:	2000      	movs	r0, #0
 8002274:	4801      	ldr	r0, [pc, #4]	@ (0x800227c)
 8002276:	f7ff beab 	b.w	0x8001fd0
 800227a:	bf00      	nop
 800227c:	029c      	lsls	r4, r3, #10
 800227e:	2000      	movs	r0, #0
 8002280:	b510      	push	{r4, lr}
 8002282:	460c      	mov	r4, r1
 8002284:	f9b1 100e 	ldrsh.w	r1, [r1, #14]
 8002288:	f000 f956 	bl	0x8002538
 800228c:	2800      	cmp	r0, #0
 800228e:	bfab      	itete	ge
 8002290:	6d63      	ldrge	r3, [r4, #84]	@ 0x54
 8002292:	89a3      	ldrhlt	r3, [r4, #12]
 8002294:	181b      	addge	r3, r3, r0
 8002296:	f423 5380 	biclt.w	r3, r3, #4096	@ 0x1000
 800229a:	bfac      	ite	ge
 800229c:	6563      	strge	r3, [r4, #84]	@ 0x54
 800229e:	81a3      	strhlt	r3, [r4, #12]
 80022a0:	bd10      	pop	{r4, pc}
 80022a2:	e92d 41f0 	stmdb	sp!, {r4, r5, r6, r7, r8, lr}
 80022a6:	461f      	mov	r7, r3
 80022a8:	898b      	ldrh	r3, [r1, #12]
 80022aa:	4605      	mov	r5, r0
 80022ac:	05db      	lsls	r3, r3, #23
 80022ae:	460c      	mov	r4, r1
 80022b0:	4616      	mov	r6, r2
 80022b2:	d505      	bpl.n	0x80022c0
 80022b4:	2302      	movs	r3, #2
 80022b6:	2200      	movs	r2, #0
 80022b8:	f9b1 100e 	ldrsh.w	r1, [r1, #14]
 80022bc:	f000 f92a 	bl	0x8002514
 80022c0:	89a3      	ldrh	r3, [r4, #12]
 80022c2:	4632      	mov	r2, r6
 80022c4:	f423 5380 	bic.w	r3, r3, #4096	@ 0x1000
 80022c8:	81a3      	strh	r3, [r4, #12]
 80022ca:	4628      	mov	r0, r5
 80022cc:	463b      	mov	r3, r7
 80022ce:	f9b4 100e 	ldrsh.w	r1, [r4, #14]
 80022d2:	e8bd 41f0 	ldmia.w	sp!, {r4, r5, r6, r7, r8, lr}
 80022d6:	f000 b951 	b.w	0x800257c
 80022da:	b510      	push	{r4, lr}
 80022dc:	460c      	mov	r4, r1
 80022de:	f9b1 100e 	ldrsh.w	r1, [r1, #14]
 80022e2:	f000 f917 	bl	0x8002514
 80022e6:	1c43      	adds	r3, r0, #1
 80022e8:	89a3      	ldrh	r3, [r4, #12]
 80022ea:	bf15      	itete	ne
 80022ec:	6560      	strne	r0, [r4, #84]	@ 0x54
 80022ee:	f423 5380 	biceq.w	r3, r3, #4096	@ 0x1000
 80022f2:	f443 5380 	orrne.w	r3, r3, #4096	@ 0x1000
 80022f6:	81a3      	strheq	r3, [r4, #12]
 80022f8:	bf18      	it	ne
 80022fa:	81a3      	strhne	r3, [r4, #12]
 80022fc:	bd10      	pop	{r4, pc}
 80022fe:	f9b1 100e 	ldrsh.w	r1, [r1, #14]
 8002302:	f000 b94d 	b.w	0x80025a0
 8002306:	b5f8      	push	{r3, r4, r5, r6, r7, lr}
 8002308:	460e      	mov	r6, r1
 800230a:	4614      	mov	r4, r2
 800230c:	4605      	mov	r5, r0
 800230e:	b118      	cbz	r0, 0x8002318
 8002310:	6a03      	ldr	r3, [r0, #32]
 8002312:	b90b      	cbnz	r3, 0x8002318
 8002314:	f7ff fd94 	bl	0x8001e40
 8002318:	69a3      	ldr	r3, [r4, #24]
 800231a:	60a3      	str	r3, [r4, #8]
 800231c:	89a3      	ldrh	r3, [r4, #12]
 800231e:	071a      	lsls	r2, r3, #28
 8002320:	d501      	bpl.n	0x8002326
 8002322:	6923      	ldr	r3, [r4, #16]
 8002324:	b943      	cbnz	r3, 0x8002338
 8002326:	4621      	mov	r1, r4
 8002328:	4628      	mov	r0, r5
 800232a:	f000 f82b 	bl	0x8002384
 800232e:	b118      	cbz	r0, 0x8002338
 8002330:	f04f 37ff 	mov.w	r7, #4294967295	@ 0xffffffff
 8002334:	4638      	mov	r0, r7
 8002336:	bdf8      	pop	{r3, r4, r5, r6, r7, pc}
 8002338:	6823      	ldr	r3, [r4, #0]
 800233a:	6922      	ldr	r2, [r4, #16]
 800233c:	b2f6      	uxtb	r6, r6
 800233e:	1a98      	subs	r0, r3, r2
 8002340:	6963      	ldr	r3, [r4, #20]
 8002342:	4637      	mov	r7, r6
 8002344:	4283      	cmp	r3, r0
 8002346:	dc05      	bgt.n	0x8002354
 8002348:	4621      	mov	r1, r4
 800234a:	4628      	mov	r0, r5
 800234c:	f7ff ff64 	bl	0x8002218
 8002350:	2800      	cmp	r0, #0
 8002352:	d1ed      	bne.n	0x8002330
 8002354:	68a3      	ldr	r3, [r4, #8]
 8002356:	3b01      	subs	r3, #1
 8002358:	60a3      	str	r3, [r4, #8]
 800235a:	6823      	ldr	r3, [r4, #0]
 800235c:	1c5a      	adds	r2, r3, #1
 800235e:	6022      	str	r2, [r4, #0]
 8002360:	701e      	strb	r6, [r3, #0]
 8002362:	6962      	ldr	r2, [r4, #20]
 8002364:	1c43      	adds	r3, r0, #1
 8002366:	429a      	cmp	r2, r3
 8002368:	d004      	beq.n	0x8002374
 800236a:	89a3      	ldrh	r3, [r4, #12]
 800236c:	07db      	lsls	r3, r3, #31
 800236e:	d5e1      	bpl.n	0x8002334
 8002370:	2e0a      	cmp	r6, #10
 8002372:	d1df      	bne.n	0x8002334
 8002374:	4621      	mov	r1, r4
 8002376:	4628      	mov	r0, r5
 8002378:	f7ff ff4e 	bl	0x8002218
 800237c:	2800      	cmp	r0, #0
 800237e:	d0d9      	beq.n	0x8002334
 8002380:	e7d6      	b.n	0x8002330
 8002382:	0000      	movs	r0, r0
 8002384:	b538      	push	{r3, r4, r5, lr}
 8002386:	4b29      	ldr	r3, [pc, #164]	@ (0x800242c)
 8002388:	4605      	mov	r5, r0
 800238a:	6818      	ldr	r0, [r3, #0]
 800238c:	460c      	mov	r4, r1
 800238e:	b118      	cbz	r0, 0x8002398
 8002390:	6a03      	ldr	r3, [r0, #32]
 8002392:	b90b      	cbnz	r3, 0x8002398
 8002394:	f7ff fd54 	bl	0x8001e40
 8002398:	f9b4 300c 	ldrsh.w	r3, [r4, #12]
 800239c:	0719      	lsls	r1, r3, #28
 800239e:	d422      	bmi.n	0x80023e6
 80023a0:	06da      	lsls	r2, r3, #27
 80023a2:	d407      	bmi.n	0x80023b4
 80023a4:	2209      	movs	r2, #9
 80023a6:	602a      	str	r2, [r5, #0]
 80023a8:	f043 0340 	orr.w	r3, r3, #64	@ 0x40
 80023ac:	f04f 30ff 	mov.w	r0, #4294967295	@ 0xffffffff
 80023b0:	81a3      	strh	r3, [r4, #12]
 80023b2:	e033      	b.n	0x800241c
 80023b4:	0758      	lsls	r0, r3, #29
 80023b6:	d512      	bpl.n	0x80023de
 80023b8:	6b61      	ldr	r1, [r4, #52]	@ 0x34
 80023ba:	b141      	cbz	r1, 0x80023ce
 80023bc:	f104 0344 	add.w	r3, r4, #68	@ 0x44
 80023c0:	4299      	cmp	r1, r3
 80023c2:	d002      	beq.n	0x80023ca
 80023c4:	4628      	mov	r0, r5
 80023c6:	f000 f90d 	bl	0x80025e4
 80023ca:	2300      	movs	r3, #0
 80023cc:	6363      	str	r3, [r4, #52]	@ 0x34
 80023ce:	89a3      	ldrh	r3, [r4, #12]
 80023d0:	f023 0324 	bic.w	r3, r3, #36	@ 0x24
 80023d4:	81a3      	strh	r3, [r4, #12]
 80023d6:	2300      	movs	r3, #0
 80023d8:	6063      	str	r3, [r4, #4]
 80023da:	6923      	ldr	r3, [r4, #16]
 80023dc:	6023      	str	r3, [r4, #0]
 80023de:	89a3      	ldrh	r3, [r4, #12]
 80023e0:	f043 0308 	orr.w	r3, r3, #8
 80023e4:	81a3      	strh	r3, [r4, #12]
 80023e6:	6923      	ldr	r3, [r4, #16]
 80023e8:	b94b      	cbnz	r3, 0x80023fe
 80023ea:	89a3      	ldrh	r3, [r4, #12]
 80023ec:	f403 7320 	and.w	r3, r3, #640	@ 0x280
 80023f0:	f5b3 7f00 	cmp.w	r3, #512	@ 0x200
 80023f4:	d003      	beq.n	0x80023fe
 80023f6:	4621      	mov	r1, r4
 80023f8:	4628      	mov	r0, r5
 80023fa:	f000 f83e 	bl	0x800247a
 80023fe:	f9b4 300c 	ldrsh.w	r3, [r4, #12]
 8002402:	f013 0201 	ands.w	r2, r3, #1
 8002406:	d00a      	beq.n	0x800241e
 8002408:	2200      	movs	r2, #0
 800240a:	60a2      	str	r2, [r4, #8]
 800240c:	6962      	ldr	r2, [r4, #20]
 800240e:	4252      	negs	r2, r2
 8002410:	61a2      	str	r2, [r4, #24]
 8002412:	6922      	ldr	r2, [r4, #16]
 8002414:	b942      	cbnz	r2, 0x8002428
 8002416:	f013 0080 	ands.w	r0, r3, #128	@ 0x80
 800241a:	d1c5      	bne.n	0x80023a8
 800241c:	bd38      	pop	{r3, r4, r5, pc}
 800241e:	0799      	lsls	r1, r3, #30
 8002420:	bf58      	it	pl
 8002422:	6962      	ldrpl	r2, [r4, #20]
 8002424:	60a2      	str	r2, [r4, #8]
 8002426:	e7f4      	b.n	0x8002412
 8002428:	2000      	movs	r0, #0
 800242a:	e7f7      	b.n	0x800241c
 800242c:	0018      	movs	r0, r3
 800242e:	2000      	movs	r0, #0
 8002430:	b570      	push	{r4, r5, r6, lr}
 8002432:	460c      	mov	r4, r1
 8002434:	f9b1 100e 	ldrsh.w	r1, [r1, #14]
 8002438:	4615      	mov	r5, r2
 800243a:	2900      	cmp	r1, #0
 800243c:	461e      	mov	r6, r3
 800243e:	b096      	sub	sp, #88	@ 0x58
 8002440:	da0c      	bge.n	0x800245c
 8002442:	89a3      	ldrh	r3, [r4, #12]
 8002444:	2100      	movs	r1, #0
 8002446:	f013 0f80 	tst.w	r3, #128	@ 0x80
 800244a:	bf14      	ite	ne
 800244c:	2340      	movne	r3, #64	@ 0x40
 800244e:	f44f 6380 	moveq.w	r3, #1024	@ 0x400
 8002452:	2000      	movs	r0, #0
 8002454:	6031      	str	r1, [r6, #0]
 8002456:	602b      	str	r3, [r5, #0]
 8002458:	b016      	add	sp, #88	@ 0x58
 800245a:	bd70      	pop	{r4, r5, r6, pc}
 800245c:	466a      	mov	r2, sp
 800245e:	f000 f8af 	bl	0x80025c0
 8002462:	2800      	cmp	r0, #0
 8002464:	dbed      	blt.n	0x8002442
 8002466:	9901      	ldr	r1, [sp, #4]
 8002468:	f401 4170 	and.w	r1, r1, #61440	@ 0xf000
 800246c:	f5a1 5300 	sub.w	r3, r1, #8192	@ 0x2000
 8002470:	4259      	negs	r1, r3
 8002472:	4159      	adcs	r1, r3
 8002474:	f44f 6380 	mov.w	r3, #1024	@ 0x400
 8002478:	e7eb      	b.n	0x8002452
 800247a:	898b      	ldrh	r3, [r1, #12]
 800247c:	b5f7      	push	{r0, r1, r2, r4, r5, r6, r7, lr}
 800247e:	079d      	lsls	r5, r3, #30
 8002480:	4606      	mov	r6, r0
 8002482:	460c      	mov	r4, r1
 8002484:	d507      	bpl.n	0x8002496
 8002486:	f104 0347 	add.w	r3, r4, #71	@ 0x47
 800248a:	6023      	str	r3, [r4, #0]
 800248c:	6123      	str	r3, [r4, #16]
 800248e:	2301      	movs	r3, #1
 8002490:	6163      	str	r3, [r4, #20]
 8002492:	b003      	add	sp, #12
 8002494:	bdf0      	pop	{r4, r5, r6, r7, pc}
 8002496:	466a      	mov	r2, sp
 8002498:	ab01      	add	r3, sp, #4
 800249a:	f7ff ffc9 	bl	0x8002430
 800249e:	9f00      	ldr	r7, [sp, #0]
 80024a0:	4605      	mov	r5, r0
 80024a2:	4639      	mov	r1, r7
 80024a4:	4630      	mov	r0, r6
 80024a6:	f7ff fdb7 	bl	0x8002018
 80024aa:	b948      	cbnz	r0, 0x80024c0
 80024ac:	f9b4 300c 	ldrsh.w	r3, [r4, #12]
 80024b0:	059a      	lsls	r2, r3, #22
 80024b2:	d4ee      	bmi.n	0x8002492
 80024b4:	f023 0303 	bic.w	r3, r3, #3
 80024b8:	f043 0302 	orr.w	r3, r3, #2
 80024bc:	81a3      	strh	r3, [r4, #12]
 80024be:	e7e2      	b.n	0x8002486
 80024c0:	89a3      	ldrh	r3, [r4, #12]
 80024c2:	e9c4 0704 	strd	r0, r7, [r4, #16]
 80024c6:	f043 0380 	orr.w	r3, r3, #128	@ 0x80
 80024ca:	81a3      	strh	r3, [r4, #12]
 80024cc:	9b01      	ldr	r3, [sp, #4]
 80024ce:	6020      	str	r0, [r4, #0]
 80024d0:	b15b      	cbz	r3, 0x80024ea
 80024d2:	4630      	mov	r0, r6
 80024d4:	f9b4 100e 	ldrsh.w	r1, [r4, #14]
 80024d8:	f000 f80c 	bl	0x80024f4
 80024dc:	b128      	cbz	r0, 0x80024ea
 80024de:	89a3      	ldrh	r3, [r4, #12]
 80024e0:	f023 0303 	bic.w	r3, r3, #3
 80024e4:	f043 0301 	orr.w	r3, r3, #1
 80024e8:	81a3      	strh	r3, [r4, #12]
 80024ea:	89a3      	ldrh	r3, [r4, #12]
 80024ec:	431d      	orrs	r5, r3
 80024ee:	81a5      	strh	r5, [r4, #12]
 80024f0:	e7cf      	b.n	0x8002492
 80024f2:	0000      	movs	r0, r0
 80024f4:	b538      	push	{r3, r4, r5, lr}
 80024f6:	2300      	movs	r3, #0
 80024f8:	4d05      	ldr	r5, [pc, #20]	@ (0x8002510)
 80024fa:	4604      	mov	r4, r0
 80024fc:	4608      	mov	r0, r1
 80024fe:	602b      	str	r3, [r5, #0]
 8002500:	f7fe f936 	bl	0x8000770
 8002504:	1c43      	adds	r3, r0, #1
 8002506:	d102      	bne.n	0x800250e
 8002508:	682b      	ldr	r3, [r5, #0]
 800250a:	b103      	cbz	r3, 0x800250e
 800250c:	6023      	str	r3, [r4, #0]
 800250e:	bd38      	pop	{r3, r4, r5, pc}
 8002510:	02a8      	lsls	r0, r5, #10
 8002512:	2000      	movs	r0, #0
 8002514:	b538      	push	{r3, r4, r5, lr}
 8002516:	4604      	mov	r4, r0
 8002518:	4608      	mov	r0, r1
 800251a:	4611      	mov	r1, r2
 800251c:	2200      	movs	r2, #0
 800251e:	4d05      	ldr	r5, [pc, #20]	@ (0x8002534)
 8002520:	602a      	str	r2, [r5, #0]
 8002522:	461a      	mov	r2, r3
 8002524:	f7fe f926 	bl	0x8000774
 8002528:	1c43      	adds	r3, r0, #1
 800252a:	d102      	bne.n	0x8002532
 800252c:	682b      	ldr	r3, [r5, #0]
 800252e:	b103      	cbz	r3, 0x8002532
 8002530:	6023      	str	r3, [r4, #0]
 8002532:	bd38      	pop	{r3, r4, r5, pc}
 8002534:	02a8      	lsls	r0, r5, #10
 8002536:	2000      	movs	r0, #0
 8002538:	b538      	push	{r3, r4, r5, lr}
 800253a:	4604      	mov	r4, r0
 800253c:	4608      	mov	r0, r1
 800253e:	4611      	mov	r1, r2
 8002540:	2200      	movs	r2, #0
 8002542:	4d05      	ldr	r5, [pc, #20]	@ (0x8002558)
 8002544:	602a      	str	r2, [r5, #0]
 8002546:	461a      	mov	r2, r3
 8002548:	f7fe f8ee 	bl	0x8000728
 800254c:	1c43      	adds	r3, r0, #1
 800254e:	d102      	bne.n	0x8002556
 8002550:	682b      	ldr	r3, [r5, #0]
 8002552:	b103      	cbz	r3, 0x8002556
 8002554:	6023      	str	r3, [r4, #0]
 8002556:	bd38      	pop	{r3, r4, r5, pc}
 8002558:	02a8      	lsls	r0, r5, #10
 800255a:	2000      	movs	r0, #0
 800255c:	b538      	push	{r3, r4, r5, lr}
 800255e:	2300      	movs	r3, #0
 8002560:	4d05      	ldr	r5, [pc, #20]	@ (0x8002578)
 8002562:	4604      	mov	r4, r0
 8002564:	4608      	mov	r0, r1
 8002566:	602b      	str	r3, [r5, #0]
 8002568:	f7fe f906 	bl	0x8000778
 800256c:	1c43      	adds	r3, r0, #1
 800256e:	d102      	bne.n	0x8002576
 8002570:	682b      	ldr	r3, [r5, #0]
 8002572:	b103      	cbz	r3, 0x8002576
 8002574:	6023      	str	r3, [r4, #0]
 8002576:	bd38      	pop	{r3, r4, r5, pc}
 8002578:	02a8      	lsls	r0, r5, #10
 800257a:	2000      	movs	r0, #0
 800257c:	b538      	push	{r3, r4, r5, lr}
 800257e:	4604      	mov	r4, r0
 8002580:	4608      	mov	r0, r1
 8002582:	4611      	mov	r1, r2
 8002584:	2200      	movs	r2, #0
 8002586:	4d05      	ldr	r5, [pc, #20]	@ (0x800259c)
 8002588:	602a      	str	r2, [r5, #0]
 800258a:	461a      	mov	r2, r3
 800258c:	f7fe f8da 	bl	0x8000744
 8002590:	1c43      	adds	r3, r0, #1
 8002592:	d102      	bne.n	0x800259a
 8002594:	682b      	ldr	r3, [r5, #0]
 8002596:	b103      	cbz	r3, 0x800259a
 8002598:	6023      	str	r3, [r4, #0]
 800259a:	bd38      	pop	{r3, r4, r5, pc}
 800259c:	02a8      	lsls	r0, r5, #10
 800259e:	2000      	movs	r0, #0
 80025a0:	b538      	push	{r3, r4, r5, lr}
 80025a2:	2300      	movs	r3, #0
 80025a4:	4d05      	ldr	r5, [pc, #20]	@ (0x80025bc)
 80025a6:	4604      	mov	r4, r0
 80025a8:	4608      	mov	r0, r1
 80025aa:	602b      	str	r3, [r5, #0]
 80025ac:	f7fe f8d8 	bl	0x8000760
 80025b0:	1c43      	adds	r3, r0, #1
 80025b2:	d102      	bne.n	0x80025ba
 80025b4:	682b      	ldr	r3, [r5, #0]
 80025b6:	b103      	cbz	r3, 0x80025ba
 80025b8:	6023      	str	r3, [r4, #0]
 80025ba:	bd38      	pop	{r3, r4, r5, pc}
 80025bc:	02a8      	lsls	r0, r5, #10
 80025be:	2000      	movs	r0, #0
 80025c0:	b538      	push	{r3, r4, r5, lr}
 80025c2:	2300      	movs	r3, #0
 80025c4:	4d06      	ldr	r5, [pc, #24]	@ (0x80025e0)
 80025c6:	4604      	mov	r4, r0
 80025c8:	4608      	mov	r0, r1
 80025ca:	4611      	mov	r1, r2
 80025cc:	602b      	str	r3, [r5, #0]
 80025ce:	f7fe f8ca 	bl	0x8000766
 80025d2:	1c43      	adds	r3, r0, #1
 80025d4:	d102      	bne.n	0x80025dc
 80025d6:	682b      	ldr	r3, [r5, #0]
 80025d8:	b103      	cbz	r3, 0x80025dc
 80025da:	6023      	str	r3, [r4, #0]
 80025dc:	bd38      	pop	{r3, r4, r5, pc}
 80025de:	bf00      	nop
 80025e0:	02a8      	lsls	r0, r5, #10
 80025e2:	2000      	movs	r0, #0
 80025e4:	b538      	push	{r3, r4, r5, lr}
 80025e6:	4605      	mov	r5, r0
 80025e8:	2900      	cmp	r1, #0
 80025ea:	d040      	beq.n	0x800266e
 80025ec:	f851 3c04 	ldr.w	r3, [r1, #-4]
 80025f0:	1f0c      	subs	r4, r1, #4
 80025f2:	2b00      	cmp	r3, #0
 80025f4:	bfb8      	it	lt
 80025f6:	18e4      	addlt	r4, r4, r3
 80025f8:	f7ff fe36 	bl	0x8002268
 80025fc:	4a1c      	ldr	r2, [pc, #112]	@ (0x8002670)
 80025fe:	6813      	ldr	r3, [r2, #0]
 8002600:	b933      	cbnz	r3, 0x8002610
 8002602:	6063      	str	r3, [r4, #4]
 8002604:	6014      	str	r4, [r2, #0]
 8002606:	4628      	mov	r0, r5
 8002608:	e8bd 4038 	ldmia.w	sp!, {r3, r4, r5, lr}
 800260c:	f7ff be32 	b.w	0x8002274
 8002610:	42a3      	cmp	r3, r4
 8002612:	d908      	bls.n	0x8002626
 8002614:	6820      	ldr	r0, [r4, #0]
 8002616:	1821      	adds	r1, r4, r0
 8002618:	428b      	cmp	r3, r1
 800261a:	bf01      	itttt	eq
 800261c:	6819      	ldreq	r1, [r3, #0]
 800261e:	685b      	ldreq	r3, [r3, #4]
 8002620:	1809      	addeq	r1, r1, r0
 8002622:	6021      	streq	r1, [r4, #0]
 8002624:	e7ed      	b.n	0x8002602
 8002626:	461a      	mov	r2, r3
 8002628:	685b      	ldr	r3, [r3, #4]
 800262a:	b10b      	cbz	r3, 0x8002630
 800262c:	42a3      	cmp	r3, r4
 800262e:	d9fa      	bls.n	0x8002626
 8002630:	6811      	ldr	r1, [r2, #0]
 8002632:	1850      	adds	r0, r2, r1
 8002634:	42a0      	cmp	r0, r4
 8002636:	d10b      	bne.n	0x8002650
 8002638:	6820      	ldr	r0, [r4, #0]
 800263a:	4401      	add	r1, r0
 800263c:	1850      	adds	r0, r2, r1
 800263e:	4283      	cmp	r3, r0
 8002640:	6011      	str	r1, [r2, #0]
 8002642:	d1e0      	bne.n	0x8002606
 8002644:	6818      	ldr	r0, [r3, #0]
 8002646:	685b      	ldr	r3, [r3, #4]
 8002648:	4408      	add	r0, r1
 800264a:	6010      	str	r0, [r2, #0]
 800264c:	6053      	str	r3, [r2, #4]
 800264e:	e7da      	b.n	0x8002606
 8002650:	d902      	bls.n	0x8002658
 8002652:	230c      	movs	r3, #12
 8002654:	602b      	str	r3, [r5, #0]
 8002656:	e7d6      	b.n	0x8002606
 8002658:	6820      	ldr	r0, [r4, #0]
 800265a:	1821      	adds	r1, r4, r0
 800265c:	428b      	cmp	r3, r1
 800265e:	bf01      	itttt	eq
 8002660:	6819      	ldreq	r1, [r3, #0]
 8002662:	685b      	ldreq	r3, [r3, #4]
 8002664:	1809      	addeq	r1, r1, r0
 8002666:	6021      	streq	r1, [r4, #0]
 8002668:	6063      	str	r3, [r4, #4]
 800266a:	6054      	str	r4, [r2, #4]
 800266c:	e7cb      	b.n	0x8002606
 800266e:	bd38      	pop	{r3, r4, r5, pc}
 8002670:	02a4      	lsls	r4, r4, #10
 8002672:	2000      	movs	r0, #0
 8002674:	b5f8      	push	{r3, r4, r5, r6, r7, lr}
 8002676:	bf00      	nop
 8002678:	bcf8      	pop	{r3, r4, r5, r6, r7}
 800267a:	bc08      	pop	{r3}
 800267c:	469e      	mov	lr, r3
 800267e:	4770      	bx	lr
 8002680:	b5f8      	push	{r3, r4, r5, r6, r7, lr}
 8002682:	bf00      	nop
 8002684:	bcf8      	pop	{r3, r4, r5, r6, r7}
 8002686:	bc08      	pop	{r3}
 8002688:	469e      	mov	lr, r3
 800268a:	4770      	bx	lr
 800268c:	6548      	str	r0, [r1, #84]	@ 0x54
 800268e:	6c6c      	ldr	r4, [r5, #68]	@ 0x44
 8002690:	206f      	movs	r0, #111	@ 0x6f
 8002692:	6f57      	ldr	r7, [r2, #116]	@ 0x74
 8002694:	6c72      	ldr	r2, [r6, #68]	@ 0x44
 8002696:	0d64      	lsrs	r4, r4, #21
 8002698:	0000      	movs	r0, r0
 800269a:	01f4      	lsls	r4, r6, #7
 800269c:	fe70 03e8 	cdp2	3, 7, cr0, cr0, cr8, {7}
 80026a0:	0000      	movs	r0, r0
 80026a2:	05dc      	lsls	r4, r3, #23
 80026a4:	00fa      	lsls	r2, r7, #3
 80026a6:	07d0      	lsls	r0, r2, #31
 80026a8:	01f4      	lsls	r4, r6, #7
 80026aa:	09c4      	lsrs	r4, r0, #7
 80026ac:	02ee      	lsls	r6, r5, #11
 80026ae:	0bb8      	lsrs	r0, r7, #14
 80026b0:	03e8      	lsls	r0, r5, #15
 80026b2:	2020      	movs	r0, #32
 80026b4:	001a      	movs	r2, r3
 80026b6:	0000      	movs	r0, r0
 80026b8:	0100      	lsls	r0, r0, #4
 80026ba:	0302      	lsls	r2, r0, #12
 80026bc:	0004      	movs	r4, r0
 80026be:	0000      	movs	r0, r0
 80026c0:	0000      	movs	r0, r0
 80026c2:	0000      	movs	r0, r0
 80026c4:	0100      	lsls	r0, r0, #4
 80026c6:	0302      	lsls	r2, r0, #12
 80026c8:	0604      	lsls	r4, r0, #24
 80026ca:	0807      	lsrs	r7, r0, #32
 80026cc:	0109      	lsls	r1, r1, #4
 80026ce:	0202      	lsls	r2, r0, #8
 80026d0:	0403      	lsls	r3, r0, #16
 80026d2:	0605      	lsls	r5, r0, #24
 80026d4:	0807      	lsrs	r7, r0, #32
 80026d6:	0a09      	lsrs	r1, r1, #8
 80026d8:	0c0b      	lsrs	r3, r1, #16
 80026da:	0e0d      	lsrs	r5, r1, #24
 80026dc:	100f      	asrs	r7, r1, #32
 80026de:	0110      	lsls	r0, r2, #4
 80026e0:	0202      	lsls	r2, r0, #8
 80026e2:	0403      	lsls	r3, r0, #16
 80026e4:	0605      	lsls	r5, r0, #24
 80026e6:	0807      	lsrs	r7, r0, #32
 80026e8:	0a09      	lsrs	r1, r1, #8
 80026ea:	0c0b      	lsrs	r3, r1, #16
 80026ec:	0e0d      	lsrs	r5, r1, #24
 80026ee:	100f      	asrs	r7, r1, #32
 80026f0:	0010      	movs	r0, r2
 80026f2:	0000      	movs	r0, r0
 80026f4:	0131      	lsls	r1, r6, #4
 80026f6:	0800      	lsrs	r0, r0, #32
 80026f8:	010d      	lsls	r5, r1, #4
 80026fa:	0800      	lsrs	r0, r0, #32
 80026fc:	1200      	asrs	r0, r0, #8
 80026fe:	007a      	lsls	r2, r7, #1
 8002700:	0001      	movs	r1, r0
 8002702:	0000      	movs	r0, r0
 8002704:	0010      	movs	r0, r2
 8002706:	0000      	movs	r0, r0
 8002708:	0000      	movs	r0, r0
 800270a:	0000      	movs	r0, r0
 800270c:	0003      	movs	r3, r0
 800270e:	0000      	movs	r0, r0
 8002710:	0160      	lsls	r0, r4, #5
 8002712:	2000      	movs	r0, #0
 8002714:	001c      	movs	r4, r3
 8002716:	2000      	movs	r0, #0
 8002718:	0000      	movs	r0, r0
 800271a:	0000      	movs	r0, r0
 800271c:	0160      	lsls	r0, r4, #5
 800271e:	2000      	movs	r0, #0
 8002720:	01c8      	lsls	r0, r1, #7
 8002722:	2000      	movs	r0, #0
 8002724:	0230      	lsls	r0, r6, #8
 8002726:	2000      	movs	r0, #0
	...
