
rfr26-tempSensor.elf:     file format elf32-littlearm

Sections:
Idx Name          Size      VMA       LMA       File off  Algn
  0 .isr_vector   0000010c  08000000  08000000  00001000  2**0
                  CONTENTS, ALLOC, LOAD, READONLY, DATA
  1 .text         00002f9c  0800010c  0800010c  0000110c  2**2
                  CONTENTS, ALLOC, LOAD, READONLY, CODE
  2 .rodata       000000b8  080030a8  080030a8  000040a8  2**1
                  CONTENTS, ALLOC, LOAD, READONLY, DATA
  3 .ARM.extab    00000000  08003160  08003160  00005070  2**0
                  CONTENTS, READONLY
  4 .ARM          00000008  08003160  08003160  00004160  2**2
                  CONTENTS, ALLOC, LOAD, READONLY, DATA
  5 .preinit_array 00000000  08003168  08003168  00005070  2**0
                  CONTENTS, ALLOC, LOAD, DATA
  6 .init_array   00000004  08003168  08003168  00004168  2**2
                  CONTENTS, ALLOC, LOAD, READONLY, DATA
  7 .fini_array   00000004  0800316c  0800316c  0000416c  2**2
                  CONTENTS, ALLOC, LOAD, READONLY, DATA
  8 .data         00000070  20000000  08003170  00005000  2**2
                  CONTENTS, ALLOC, LOAD, DATA
  9 .bss          000002f0  20000070  080031e0  00005070  2**2
                  ALLOC
 10 ._user_heap_stack 00000600  20000360  080031e0  00005360  2**0
                  ALLOC
 11 .ARM.attributes 00000029  00000000  00000000  00005070  2**0
                  CONTENTS, READONLY
 12 .comment      00000043  00000000  00000000  00005099  2**0
                  CONTENTS, READONLY
 13 .debug_frame  00000b98  00000000  00000000  000050dc  2**2
                  CONTENTS, READONLY, DEBUGGING, OCTETS

Disassembly of section .text:

0800010c <__do_global_dtors_aux>:
 800010c:	b510      	push	{r4, lr}
 800010e:	4c05      	ldr	r4, [pc, #20]	@ (8000124 <__do_global_dtors_aux+0x18>)
 8000110:	7823      	ldrb	r3, [r4, #0]
 8000112:	b933      	cbnz	r3, 8000122 <__do_global_dtors_aux+0x16>
 8000114:	4b04      	ldr	r3, [pc, #16]	@ (8000128 <__do_global_dtors_aux+0x1c>)
 8000116:	b113      	cbz	r3, 800011e <__do_global_dtors_aux+0x12>
 8000118:	4804      	ldr	r0, [pc, #16]	@ (800012c <__do_global_dtors_aux+0x20>)
 800011a:	f3af 8000 	nop.w
 800011e:	2301      	movs	r3, #1
 8000120:	7023      	strb	r3, [r4, #0]
 8000122:	bd10      	pop	{r4, pc}
 8000124:	20000070 	.word	0x20000070
 8000128:	00000000 	.word	0x00000000
 800012c:	08003090 	.word	0x08003090

08000130 <frame_dummy>:
 8000130:	b508      	push	{r3, lr}
 8000132:	4b03      	ldr	r3, [pc, #12]	@ (8000140 <frame_dummy+0x10>)
 8000134:	b11b      	cbz	r3, 800013e <frame_dummy+0xe>
 8000136:	4903      	ldr	r1, [pc, #12]	@ (8000144 <frame_dummy+0x14>)
 8000138:	4803      	ldr	r0, [pc, #12]	@ (8000148 <frame_dummy+0x18>)
 800013a:	f3af 8000 	nop.w
 800013e:	bd08      	pop	{r3, pc}
 8000140:	00000000 	.word	0x00000000
 8000144:	20000074 	.word	0x20000074
 8000148:	08003090 	.word	0x08003090

0800014c <strlen>:
 800014c:	4603      	mov	r3, r0
 800014e:	f813 2b01 	ldrb.w	r2, [r3], #1
 8000152:	2a00      	cmp	r2, #0
 8000154:	d1fb      	bne.n	800014e <strlen+0x2>
 8000156:	1a18      	subs	r0, r3, r0
 8000158:	3801      	subs	r0, #1
 800015a:	4770      	bx	lr

0800015c <delay_us>:
 800015c:	4a0f      	ldr	r2, [pc, #60]	@ (800019c <delay_us+0x40>)
 800015e:	f8d2 30fc 	ldr.w	r3, [r2, #252]	@ 0xfc
 8000162:	f013 7380 	ands.w	r3, r3, #16777216	@ 0x1000000
 8000166:	d10c      	bne.n	8000182 <delay_us+0x26>
 8000168:	f8d2 10fc 	ldr.w	r1, [r2, #252]	@ 0xfc
 800016c:	f041 7180 	orr.w	r1, r1, #16777216	@ 0x1000000
 8000170:	f8c2 10fc 	str.w	r1, [r2, #252]	@ 0xfc
 8000174:	f5a2 425d 	sub.w	r2, r2, #56576	@ 0xdd00
 8000178:	6053      	str	r3, [r2, #4]
 800017a:	6813      	ldr	r3, [r2, #0]
 800017c:	f043 0301 	orr.w	r3, r3, #1
 8000180:	6013      	str	r3, [r2, #0]
 8000182:	4b07      	ldr	r3, [pc, #28]	@ (80001a0 <delay_us+0x44>)
 8000184:	4a07      	ldr	r2, [pc, #28]	@ (80001a4 <delay_us+0x48>)
 8000186:	681b      	ldr	r3, [r3, #0]
 8000188:	fbb3 f3f2 	udiv	r3, r3, r2
 800018c:	4a06      	ldr	r2, [pc, #24]	@ (80001a8 <delay_us+0x4c>)
 800018e:	4358      	muls	r0, r3
 8000190:	6851      	ldr	r1, [r2, #4]
 8000192:	6853      	ldr	r3, [r2, #4]
 8000194:	1a5b      	subs	r3, r3, r1
 8000196:	4283      	cmp	r3, r0
 8000198:	d3fb      	bcc.n	8000192 <delay_us+0x36>
 800019a:	4770      	bx	lr
 800019c:	e000ed00 	.word	0xe000ed00
 80001a0:	20000000 	.word	0x20000000
 80001a4:	000f4240 	.word	0x000f4240
 80001a8:	e0001000 	.word	0xe0001000

080001ac <MUX_Enable>:
 80001ac:	2801      	cmp	r0, #1
 80001ae:	f081 0201 	eor.w	r2, r1, #1
 80001b2:	d006      	beq.n	80001c2 <MUX_Enable+0x16>
 80001b4:	2802      	cmp	r0, #2
 80001b6:	d006      	beq.n	80001c6 <MUX_Enable+0x1a>
 80001b8:	b938      	cbnz	r0, 80001ca <MUX_Enable+0x1e>
 80001ba:	2101      	movs	r1, #1
 80001bc:	4803      	ldr	r0, [pc, #12]	@ (80001cc <MUX_Enable+0x20>)
 80001be:	f001 b8c9 	b.w	8001354 <HAL_GPIO_WritePin>
 80001c2:	2102      	movs	r1, #2
 80001c4:	e7fa      	b.n	80001bc <MUX_Enable+0x10>
 80001c6:	2104      	movs	r1, #4
 80001c8:	e7f8      	b.n	80001bc <MUX_Enable+0x10>
 80001ca:	4770      	bx	lr
 80001cc:	40010c00 	.word	0x40010c00

080001d0 <SystemClock_Config>:
 80001d0:	b530      	push	{r4, r5, lr}
 80001d2:	b095      	sub	sp, #84	@ 0x54
 80001d4:	2224      	movs	r2, #36	@ 0x24
 80001d6:	2100      	movs	r1, #0
 80001d8:	a80b      	add	r0, sp, #44	@ 0x2c
 80001da:	f002 f8f7 	bl	80023cc <memset>
 80001de:	2214      	movs	r2, #20
 80001e0:	2510      	movs	r5, #16
 80001e2:	2100      	movs	r1, #0
 80001e4:	eb0d 0002 	add.w	r0, sp, r2
 80001e8:	f002 f8f0 	bl	80023cc <memset>
 80001ec:	2100      	movs	r1, #0
 80001ee:	462a      	mov	r2, r5
 80001f0:	a801      	add	r0, sp, #4
 80001f2:	f002 f8eb 	bl	80023cc <memset>
 80001f6:	2402      	movs	r4, #2
 80001f8:	2301      	movs	r3, #1
 80001fa:	a80a      	add	r0, sp, #40	@ 0x28
 80001fc:	e9cd 350e 	strd	r3, r5, [sp, #56]	@ 0x38
 8000200:	940a      	str	r4, [sp, #40]	@ 0x28
 8000202:	f001 f8ad 	bl	8001360 <HAL_RCC_OscConfig>
 8000206:	4601      	mov	r1, r0
 8000208:	b108      	cbz	r0, 800020e <SystemClock_Config+0x3e>
 800020a:	b672      	cpsid	i
 800020c:	e7fe      	b.n	800020c <SystemClock_Config+0x3c>
 800020e:	230f      	movs	r3, #15
 8000210:	e9cd 0007 	strd	r0, r0, [sp, #28]
 8000214:	e9cd 3005 	strd	r3, r0, [sp, #20]
 8000218:	9009      	str	r0, [sp, #36]	@ 0x24
 800021a:	a805      	add	r0, sp, #20
 800021c:	f001 fa62 	bl	80016e4 <HAL_RCC_ClockConfig>
 8000220:	b108      	cbz	r0, 8000226 <SystemClock_Config+0x56>
 8000222:	b672      	cpsid	i
 8000224:	e7fe      	b.n	8000224 <SystemClock_Config+0x54>
 8000226:	9003      	str	r0, [sp, #12]
 8000228:	a801      	add	r0, sp, #4
 800022a:	9401      	str	r4, [sp, #4]
 800022c:	f001 fb06 	bl	800183c <HAL_RCCEx_PeriphCLKConfig>
 8000230:	b108      	cbz	r0, 8000236 <SystemClock_Config+0x66>
 8000232:	b672      	cpsid	i
 8000234:	e7fe      	b.n	8000234 <SystemClock_Config+0x64>
 8000236:	b015      	add	sp, #84	@ 0x54
 8000238:	bd30      	pop	{r4, r5, pc}
	...

0800023c <main>:
 800023c:	2400      	movs	r4, #0
 800023e:	f04f 0910 	mov.w	r9, #16
 8000242:	e92d 4880 	stmdb	sp!, {r7, fp, lr}
 8000246:	f04f 0807 	mov.w	r8, #7
 800024a:	2701      	movs	r7, #1
 800024c:	2502      	movs	r5, #2
 800024e:	b097      	sub	sp, #92	@ 0x5c
 8000250:	e9cd 4404 	strd	r4, r4, [sp, #16]
 8000254:	f000 fade 	bl	8000814 <HAL_Init>
 8000258:	f7ff ffba 	bl	80001d0 <SystemClock_Config>
 800025c:	f001 ff64 	bl	8002128 <initialise_monitor_handles>
 8000260:	464a      	mov	r2, r9
 8000262:	4621      	mov	r1, r4
 8000264:	a80c      	add	r0, sp, #48	@ 0x30
 8000266:	f002 f8b1 	bl	80023cc <memset>
 800026a:	4b81      	ldr	r3, [pc, #516]	@ (8000470 <main+0x234>)
 800026c:	2107      	movs	r1, #7
 800026e:	699a      	ldr	r2, [r3, #24]
 8000270:	4880      	ldr	r0, [pc, #512]	@ (8000474 <main+0x238>)
 8000272:	f042 0220 	orr.w	r2, r2, #32
 8000276:	619a      	str	r2, [r3, #24]
 8000278:	699a      	ldr	r2, [r3, #24]
 800027a:	4e7f      	ldr	r6, [pc, #508]	@ (8000478 <main+0x23c>)
 800027c:	f002 0220 	and.w	r2, r2, #32
 8000280:	9209      	str	r2, [sp, #36]	@ 0x24
 8000282:	9a09      	ldr	r2, [sp, #36]	@ 0x24
 8000284:	699a      	ldr	r2, [r3, #24]
 8000286:	f042 0204 	orr.w	r2, r2, #4
 800028a:	619a      	str	r2, [r3, #24]
 800028c:	699a      	ldr	r2, [r3, #24]
 800028e:	f002 0204 	and.w	r2, r2, #4
 8000292:	920a      	str	r2, [sp, #40]	@ 0x28
 8000294:	9a0a      	ldr	r2, [sp, #40]	@ 0x28
 8000296:	699a      	ldr	r2, [r3, #24]
 8000298:	f042 0208 	orr.w	r2, r2, #8
 800029c:	619a      	str	r2, [r3, #24]
 800029e:	699b      	ldr	r3, [r3, #24]
 80002a0:	2201      	movs	r2, #1
 80002a2:	f003 0308 	and.w	r3, r3, #8
 80002a6:	930b      	str	r3, [sp, #44]	@ 0x2c
 80002a8:	9b0b      	ldr	r3, [sp, #44]	@ 0x2c
 80002aa:	f001 f853 	bl	8001354 <HAL_GPIO_WritePin>
 80002ae:	4871      	ldr	r0, [pc, #452]	@ (8000474 <main+0x238>)
 80002b0:	a90c      	add	r1, sp, #48	@ 0x30
 80002b2:	e9cd 870c 	strd	r8, r7, [sp, #48]	@ 0x30
 80002b6:	940e      	str	r4, [sp, #56]	@ 0x38
 80002b8:	950f      	str	r5, [sp, #60]	@ 0x3c
 80002ba:	f000 ff77 	bl	80011ac <HAL_GPIO_Init>
 80002be:	4b6f      	ldr	r3, [pc, #444]	@ (800047c <main+0x240>)
 80002c0:	4630      	mov	r0, r6
 80002c2:	6033      	str	r3, [r6, #0]
 80002c4:	f44f 2360 	mov.w	r3, #917504	@ 0xe0000
 80002c8:	e9cd 440c 	strd	r4, r4, [sp, #48]	@ 0x30
 80002cc:	940e      	str	r4, [sp, #56]	@ 0x38
 80002ce:	60b4      	str	r4, [r6, #8]
 80002d0:	7334      	strb	r4, [r6, #12]
 80002d2:	7534      	strb	r4, [r6, #20]
 80002d4:	61f3      	str	r3, [r6, #28]
 80002d6:	6074      	str	r4, [r6, #4]
 80002d8:	6137      	str	r7, [r6, #16]
 80002da:	f000 fca9 	bl	8000c30 <HAL_ADC_Init>
 80002de:	b108      	cbz	r0, 80002e4 <main+0xa8>
 80002e0:	b672      	cpsid	i
 80002e2:	e7fe      	b.n	80002e2 <main+0xa6>
 80002e4:	900e      	str	r0, [sp, #56]	@ 0x38
 80002e6:	a90c      	add	r1, sp, #48	@ 0x30
 80002e8:	4630      	mov	r0, r6
 80002ea:	e9cd 570c 	strd	r5, r7, [sp, #48]	@ 0x30
 80002ee:	f000 fb5d 	bl	80009ac <HAL_ADC_ConfigChannel>
 80002f2:	b108      	cbz	r0, 80002f8 <main+0xbc>
 80002f4:	b672      	cpsid	i
 80002f6:	e7fe      	b.n	80002f6 <main+0xba>
 80002f8:	4d61      	ldr	r5, [pc, #388]	@ (8000480 <main+0x244>)
 80002fa:	4b62      	ldr	r3, [pc, #392]	@ (8000484 <main+0x248>)
 80002fc:	e9c5 0002 	strd	r0, r0, [r5, #8]
 8000300:	e9c5 0004 	strd	r0, r0, [r5, #16]
 8000304:	61a8      	str	r0, [r5, #24]
 8000306:	83a8      	strh	r0, [r5, #28]
 8000308:	4628      	mov	r0, r5
 800030a:	e9c5 3900 	strd	r3, r9, [r5]
 800030e:	f000 fd97 	bl	8000e40 <HAL_CAN_Init>
 8000312:	4603      	mov	r3, r0
 8000314:	b108      	cbz	r0, 800031a <main+0xde>
 8000316:	b672      	cpsid	i
 8000318:	e7fe      	b.n	8000318 <main+0xdc>
 800031a:	f44f 7282 	mov.w	r2, #260	@ 0x104
 800031e:	485a      	ldr	r0, [pc, #360]	@ (8000488 <main+0x24c>)
 8000320:	f8df c168 	ldr.w	ip, [pc, #360]	@ 800048c <main+0x250>
 8000324:	e9c0 3304 	strd	r3, r3, [r0, #16]
 8000328:	e9c0 c200 	strd	ip, r2, [r0]
 800032c:	f44f 4200 	mov.w	r2, #32768	@ 0x8000
 8000330:	e9c0 2302 	strd	r2, r3, [r0, #8]
 8000334:	f44f 7200 	mov.w	r2, #512	@ 0x200
 8000338:	e9c0 3308 	strd	r3, r3, [r0, #32]
 800033c:	e9c0 2306 	strd	r2, r3, [r0, #24]
 8000340:	6283      	str	r3, [r0, #40]	@ 0x28
 8000342:	230a      	movs	r3, #10
 8000344:	62c3      	str	r3, [r0, #44]	@ 0x2c
 8000346:	f001 fbc9 	bl	8001adc <HAL_SPI_Init>
 800034a:	4681      	mov	r9, r0
 800034c:	b108      	cbz	r0, 8000352 <main+0x116>
 800034e:	b672      	cpsid	i
 8000350:	e7fe      	b.n	8000350 <main+0x114>
 8000352:	463a      	mov	r2, r7
 8000354:	4641      	mov	r1, r8
 8000356:	4847      	ldr	r0, [pc, #284]	@ (8000474 <main+0x238>)
 8000358:	f000 fffc 	bl	8001354 <HAL_GPIO_WritePin>
 800035c:	4630      	mov	r0, r6
 800035e:	f000 fcff 	bl	8000d60 <HAL_ADCEx_Calibration_Start>
 8000362:	4649      	mov	r1, r9
 8000364:	221c      	movs	r2, #28
 8000366:	a80c      	add	r0, sp, #48	@ 0x30
 8000368:	f002 f830 	bl	80023cc <memset>
 800036c:	230e      	movs	r3, #14
 800036e:	4628      	mov	r0, r5
 8000370:	a90c      	add	r1, sp, #48	@ 0x30
 8000372:	e9cd 7713 	strd	r7, r7, [sp, #76]	@ 0x4c
 8000376:	9315      	str	r3, [sp, #84]	@ 0x54
 8000378:	f000 fddd 	bl	8000f36 <HAL_CAN_ConfigFilter>
 800037c:	b108      	cbz	r0, 8000382 <main+0x146>
 800037e:	b672      	cpsid	i
 8000380:	e7fe      	b.n	8000380 <main+0x144>
 8000382:	4628      	mov	r0, r5
 8000384:	f000 fe47 	bl	8001016 <HAL_CAN_Start>
 8000388:	4639      	mov	r1, r7
 800038a:	4841      	ldr	r0, [pc, #260]	@ (8000490 <main+0x254>)
 800038c:	f002 f80c 	bl	80023a8 <iprintf>
 8000390:	2600      	movs	r6, #0
 8000392:	f647 77ff 	movw	r7, #32767	@ 0x7fff
 8000396:	46b1      	mov	r9, r6
 8000398:	46b0      	mov	r8, r6
 800039a:	4b3e      	ldr	r3, [pc, #248]	@ (8000494 <main+0x258>)
 800039c:	9603      	str	r6, [sp, #12]
 800039e:	9301      	str	r3, [sp, #4]
 80003a0:	fa5f f389 	uxtb.w	r3, r9
 80003a4:	9302      	str	r3, [sp, #8]
 80003a6:	4b3c      	ldr	r3, [pc, #240]	@ (8000498 <main+0x25c>)
 80003a8:	f04f 0b00 	mov.w	fp, #0
 80003ac:	f813 3009 	ldrb.w	r3, [r3, r9]
 80003b0:	9306      	str	r3, [sp, #24]
 80003b2:	e016      	b.n	80003e2 <main+0x1a6>
 80003b4:	f1ba 0f1f 	cmp.w	sl, #31
 80003b8:	d97a      	bls.n	80004b0 <main+0x274>
 80003ba:	4b38      	ldr	r3, [pc, #224]	@ (800049c <main+0x260>)
 80003bc:	9a03      	ldr	r2, [sp, #12]
 80003be:	f10b 0b01 	add.w	fp, fp, #1
 80003c2:	441a      	add	r2, r3
 80003c4:	9203      	str	r2, [sp, #12]
 80003c6:	9a01      	ldr	r2, [sp, #4]
 80003c8:	429a      	cmp	r2, r3
 80003ca:	9a04      	ldr	r2, [sp, #16]
 80003cc:	bfb8      	it	lt
 80003ce:	4652      	movlt	r2, sl
 80003d0:	9204      	str	r2, [sp, #16]
 80003d2:	9a01      	ldr	r2, [sp, #4]
 80003d4:	bfb8      	it	lt
 80003d6:	461a      	movlt	r2, r3
 80003d8:	429f      	cmp	r7, r3
 80003da:	bfc4      	itt	gt
 80003dc:	4654      	movgt	r4, sl
 80003de:	461f      	movgt	r7, r3
 80003e0:	9201      	str	r2, [sp, #4]
 80003e2:	9b06      	ldr	r3, [sp, #24]
 80003e4:	fa5f fa8b 	uxtb.w	sl, fp
 80003e8:	4553      	cmp	r3, sl
 80003ea:	d8e3      	bhi.n	80003b4 <main+0x178>
 80003ec:	f109 0901 	add.w	r9, r9, #1
 80003f0:	44d8      	add	r8, fp
 80003f2:	f1b9 0f03 	cmp.w	r9, #3
 80003f6:	fa1f f888 	uxth.w	r8, r8
 80003fa:	d1d1      	bne.n	80003a0 <main+0x164>
 80003fc:	f1b8 0f00 	cmp.w	r8, #0
 8000400:	d004      	beq.n	800040c <main+0x1d0>
 8000402:	9b03      	ldr	r3, [sp, #12]
 8000404:	fb93 f3f8 	sdiv	r3, r3, r8
 8000408:	b21b      	sxth	r3, r3
 800040a:	9305      	str	r3, [sp, #20]
 800040c:	2204      	movs	r2, #4
 800040e:	4b24      	ldr	r3, [pc, #144]	@ (80004a0 <main+0x264>)
 8000410:	4924      	ldr	r1, [pc, #144]	@ (80004a4 <main+0x268>)
 8000412:	2000      	movs	r0, #0
 8000414:	e9c3 1201 	strd	r1, r2, [r3, #4]
 8000418:	2208      	movs	r2, #8
 800041a:	e9c3 0203 	strd	r0, r2, [r3, #12]
 800041e:	f04f 0200 	mov.w	r2, #0
 8000422:	751a      	strb	r2, [r3, #20]
 8000424:	2201      	movs	r2, #1
 8000426:	210a      	movs	r1, #10
 8000428:	4b1f      	ldr	r3, [pc, #124]	@ (80004a8 <main+0x26c>)
 800042a:	fb97 f7f1 	sdiv	r7, r7, r1
 800042e:	701a      	strb	r2, [r3, #0]
 8000430:	9a01      	ldr	r2, [sp, #4]
 8000432:	4618      	mov	r0, r3
 8000434:	fb92 f2f1 	sdiv	r2, r2, r1
 8000438:	709a      	strb	r2, [r3, #2]
 800043a:	9a05      	ldr	r2, [sp, #20]
 800043c:	705f      	strb	r7, [r3, #1]
 800043e:	fb92 f1f1 	sdiv	r1, r2, r1
 8000442:	9a04      	ldr	r2, [sp, #16]
 8000444:	70d9      	strb	r1, [r3, #3]
 8000446:	715a      	strb	r2, [r3, #5]
 8000448:	2100      	movs	r1, #0
 800044a:	2241      	movs	r2, #65	@ 0x41
 800044c:	711e      	strb	r6, [r3, #4]
 800044e:	719c      	strb	r4, [r3, #6]
 8000450:	f813 5b01 	ldrb.w	r5, [r3], #1
 8000454:	3101      	adds	r1, #1
 8000456:	b2c9      	uxtb	r1, r1
 8000458:	442a      	add	r2, r5
 800045a:	2907      	cmp	r1, #7
 800045c:	b2d2      	uxtb	r2, r2
 800045e:	d1f7      	bne.n	8000450 <main+0x214>
 8000460:	71c2      	strb	r2, [r0, #7]
 8000462:	4b12      	ldr	r3, [pc, #72]	@ (80004ac <main+0x270>)
 8000464:	4a10      	ldr	r2, [pc, #64]	@ (80004a8 <main+0x26c>)
 8000466:	490e      	ldr	r1, [pc, #56]	@ (80004a0 <main+0x264>)
 8000468:	4805      	ldr	r0, [pc, #20]	@ (8000480 <main+0x244>)
 800046a:	f000 fdff 	bl	800106c <HAL_CAN_AddTxMessage>
 800046e:	e78f      	b.n	8000390 <main+0x154>
 8000470:	40021000 	.word	0x40021000
 8000474:	40010c00 	.word	0x40010c00
 8000478:	20000130 	.word	0x20000130
 800047c:	40012400 	.word	0x40012400
 8000480:	20000108 	.word	0x20000108
 8000484:	40006400 	.word	0x40006400
 8000488:	200000b0 	.word	0x200000b0
 800048c:	40013000 	.word	0x40013000
 8000490:	080030a8 	.word	0x080030a8
 8000494:	ffff8000 	.word	0xffff8000
 8000498:	08003120 	.word	0x08003120
 800049c:	ffffd8f1 	.word	0xffffd8f1
 80004a0:	20000098 	.word	0x20000098
 80004a4:	1839f380 	.word	0x1839f380
 80004a8:	20000090 	.word	0x20000090
 80004ac:	2000008c 	.word	0x2000008c
 80004b0:	2201      	movs	r2, #1
 80004b2:	2107      	movs	r1, #7
 80004b4:	483b      	ldr	r0, [pc, #236]	@ (80005a4 <main+0x368>)
 80004b6:	f000 ff4d 	bl	8001354 <HAL_GPIO_WritePin>
 80004ba:	f00a 0307 	and.w	r3, sl, #7
 80004be:	2101      	movs	r1, #1
 80004c0:	9802      	ldr	r0, [sp, #8]
 80004c2:	f88d 3030 	strb.w	r3, [sp, #48]	@ 0x30
 80004c6:	f7ff fe71 	bl	80001ac <MUX_Enable>
 80004ca:	200a      	movs	r0, #10
 80004cc:	f7ff fe46 	bl	800015c <delay_us>
 80004d0:	230a      	movs	r3, #10
 80004d2:	2201      	movs	r2, #1
 80004d4:	a90c      	add	r1, sp, #48	@ 0x30
 80004d6:	4834      	ldr	r0, [pc, #208]	@ (80005a8 <main+0x36c>)
 80004d8:	f001 fb58 	bl	8001b8c <HAL_SPI_Transmit>
 80004dc:	200a      	movs	r0, #10
 80004de:	f7ff fe3d 	bl	800015c <delay_us>
 80004e2:	2100      	movs	r1, #0
 80004e4:	9802      	ldr	r0, [sp, #8]
 80004e6:	f7ff fe61 	bl	80001ac <MUX_Enable>
 80004ea:	2101      	movs	r1, #1
 80004ec:	9802      	ldr	r0, [sp, #8]
 80004ee:	f7ff fe5d 	bl	80001ac <MUX_Enable>
 80004f2:	f44f 60af 	mov.w	r0, #1400	@ 0x578
 80004f6:	f7ff fe31 	bl	800015c <delay_us>
 80004fa:	482c      	ldr	r0, [pc, #176]	@ (80005ac <main+0x370>)
 80004fc:	f000 fb10 	bl	8000b20 <HAL_ADC_Start>
 8000500:	f44f 75fa 	mov.w	r5, #500	@ 0x1f4
 8000504:	2300      	movs	r3, #0
 8000506:	2102      	movs	r1, #2
 8000508:	4828      	ldr	r0, [pc, #160]	@ (80005ac <main+0x370>)
 800050a:	9307      	str	r3, [sp, #28]
 800050c:	f000 f9a6 	bl	800085c <HAL_ADC_PollForConversion>
 8000510:	4826      	ldr	r0, [pc, #152]	@ (80005ac <main+0x370>)
 8000512:	f000 fa47 	bl	80009a4 <HAL_ADC_GetValue>
 8000516:	3d01      	subs	r5, #1
 8000518:	9b07      	ldr	r3, [sp, #28]
 800051a:	b2ad      	uxth	r5, r5
 800051c:	4403      	add	r3, r0
 800051e:	2d00      	cmp	r5, #0
 8000520:	d1f1      	bne.n	8000506 <main+0x2ca>
 8000522:	4822      	ldr	r0, [pc, #136]	@ (80005ac <main+0x370>)
 8000524:	9307      	str	r3, [sp, #28]
 8000526:	f000 fc01 	bl	8000d2c <HAL_ADC_Stop>
 800052a:	4629      	mov	r1, r5
 800052c:	9802      	ldr	r0, [sp, #8]
 800052e:	f7ff fe3d 	bl	80001ac <MUX_Enable>
 8000532:	f44f 72fa 	mov.w	r2, #500	@ 0x1f4
 8000536:	9b07      	ldr	r3, [sp, #28]
 8000538:	fbb3 fcf2 	udiv	ip, r3, r2
 800053c:	f640 43e4 	movw	r3, #3300	@ 0xce4
 8000540:	fa1f fc8c 	uxth.w	ip, ip
 8000544:	fb03 fc0c 	mul.w	ip, r3, ip
 8000548:	f640 73ff 	movw	r3, #4095	@ 0xfff
 800054c:	fbbc fcf3 	udiv	ip, ip, r3
 8000550:	4b17      	ldr	r3, [pc, #92]	@ (80005b0 <main+0x374>)
 8000552:	fa1f f18c 	uxth.w	r1, ip
 8000556:	8818      	ldrh	r0, [r3, #0]
 8000558:	4281      	cmp	r1, r0
 800055a:	d31c      	bcc.n	8000596 <main+0x35a>
 800055c:	889a      	ldrh	r2, [r3, #4]
 800055e:	4291      	cmp	r1, r2
 8000560:	d819      	bhi.n	8000596 <main+0x35a>
 8000562:	4b13      	ldr	r3, [pc, #76]	@ (80005b0 <main+0x374>)
 8000564:	ebac 0c00 	sub.w	ip, ip, r0
 8000568:	eb03 0185 	add.w	r1, r3, r5, lsl #2
 800056c:	eb03 0385 	add.w	r3, r3, r5, lsl #2
 8000570:	f9b1 1002 	ldrsh.w	r1, [r1, #2]
 8000574:	f9b3 3006 	ldrsh.w	r3, [r3, #6]
 8000578:	1a12      	subs	r2, r2, r0
 800057a:	1a5b      	subs	r3, r3, r1
 800057c:	fb0c f303 	mul.w	r3, ip, r3
 8000580:	fb93 f3f2 	sdiv	r3, r3, r2
 8000584:	4a0b      	ldr	r2, [pc, #44]	@ (80005b4 <main+0x378>)
 8000586:	440b      	add	r3, r1
 8000588:	b21b      	sxth	r3, r3
 800058a:	4293      	cmp	r3, r2
 800058c:	f6ff af16 	blt.w	80003bc <main+0x180>
 8000590:	3601      	adds	r6, #1
 8000592:	b2f6      	uxtb	r6, r6
 8000594:	e712      	b.n	80003bc <main+0x180>
 8000596:	3501      	adds	r5, #1
 8000598:	2d05      	cmp	r5, #5
 800059a:	f103 0304 	add.w	r3, r3, #4
 800059e:	d1da      	bne.n	8000556 <main+0x31a>
 80005a0:	e70b      	b.n	80003ba <main+0x17e>
 80005a2:	bf00      	nop
 80005a4:	40010c00 	.word	0x40010c00
 80005a8:	200000b0 	.word	0x200000b0
 80005ac:	20000130 	.word	0x20000130
 80005b0:	08003108 	.word	0x08003108
 80005b4:	ffffd905 	.word	0xffffd905

080005b8 <HAL_MspInit>:
 80005b8:	4b0e      	ldr	r3, [pc, #56]	@ (80005f4 <HAL_MspInit+0x3c>)
 80005ba:	b082      	sub	sp, #8
 80005bc:	699a      	ldr	r2, [r3, #24]
 80005be:	f042 0201 	orr.w	r2, r2, #1
 80005c2:	619a      	str	r2, [r3, #24]
 80005c4:	699a      	ldr	r2, [r3, #24]
 80005c6:	f002 0201 	and.w	r2, r2, #1
 80005ca:	9200      	str	r2, [sp, #0]
 80005cc:	9a00      	ldr	r2, [sp, #0]
 80005ce:	69da      	ldr	r2, [r3, #28]
 80005d0:	f042 5280 	orr.w	r2, r2, #268435456	@ 0x10000000
 80005d4:	61da      	str	r2, [r3, #28]
 80005d6:	69db      	ldr	r3, [r3, #28]
 80005d8:	4a07      	ldr	r2, [pc, #28]	@ (80005f8 <HAL_MspInit+0x40>)
 80005da:	f003 5380 	and.w	r3, r3, #268435456	@ 0x10000000
 80005de:	9301      	str	r3, [sp, #4]
 80005e0:	9b01      	ldr	r3, [sp, #4]
 80005e2:	6853      	ldr	r3, [r2, #4]
 80005e4:	f023 63e0 	bic.w	r3, r3, #117440512	@ 0x7000000
 80005e8:	f043 7300 	orr.w	r3, r3, #33554432	@ 0x2000000
 80005ec:	6053      	str	r3, [r2, #4]
 80005ee:	b002      	add	sp, #8
 80005f0:	4770      	bx	lr
 80005f2:	bf00      	nop
 80005f4:	40021000 	.word	0x40021000
 80005f8:	40010000 	.word	0x40010000

080005fc <HAL_ADC_MspInit>:
 80005fc:	b510      	push	{r4, lr}
 80005fe:	4604      	mov	r4, r0
 8000600:	b086      	sub	sp, #24
 8000602:	2210      	movs	r2, #16
 8000604:	2100      	movs	r1, #0
 8000606:	a802      	add	r0, sp, #8
 8000608:	f001 fee0 	bl	80023cc <memset>
 800060c:	6822      	ldr	r2, [r4, #0]
 800060e:	4b10      	ldr	r3, [pc, #64]	@ (8000650 <HAL_ADC_MspInit+0x54>)
 8000610:	429a      	cmp	r2, r3
 8000612:	d11b      	bne.n	800064c <HAL_ADC_MspInit+0x50>
 8000614:	f503 436c 	add.w	r3, r3, #60416	@ 0xec00
 8000618:	699a      	ldr	r2, [r3, #24]
 800061a:	480e      	ldr	r0, [pc, #56]	@ (8000654 <HAL_ADC_MspInit+0x58>)
 800061c:	f442 7200 	orr.w	r2, r2, #512	@ 0x200
 8000620:	619a      	str	r2, [r3, #24]
 8000622:	699a      	ldr	r2, [r3, #24]
 8000624:	a902      	add	r1, sp, #8
 8000626:	f402 7200 	and.w	r2, r2, #512	@ 0x200
 800062a:	9200      	str	r2, [sp, #0]
 800062c:	9a00      	ldr	r2, [sp, #0]
 800062e:	699a      	ldr	r2, [r3, #24]
 8000630:	f042 0204 	orr.w	r2, r2, #4
 8000634:	619a      	str	r2, [r3, #24]
 8000636:	699b      	ldr	r3, [r3, #24]
 8000638:	2204      	movs	r2, #4
 800063a:	f003 0304 	and.w	r3, r3, #4
 800063e:	9301      	str	r3, [sp, #4]
 8000640:	9b01      	ldr	r3, [sp, #4]
 8000642:	2303      	movs	r3, #3
 8000644:	e9cd 2302 	strd	r2, r3, [sp, #8]
 8000648:	f000 fdb0 	bl	80011ac <HAL_GPIO_Init>
 800064c:	b006      	add	sp, #24
 800064e:	bd10      	pop	{r4, pc}
 8000650:	40012400 	.word	0x40012400
 8000654:	40010800 	.word	0x40010800

08000658 <HAL_CAN_MspInit>:
 8000658:	b510      	push	{r4, lr}
 800065a:	4604      	mov	r4, r0
 800065c:	b086      	sub	sp, #24
 800065e:	2210      	movs	r2, #16
 8000660:	2100      	movs	r1, #0
 8000662:	a802      	add	r0, sp, #8
 8000664:	f001 feb2 	bl	80023cc <memset>
 8000668:	6822      	ldr	r2, [r4, #0]
 800066a:	4b15      	ldr	r3, [pc, #84]	@ (80006c0 <HAL_CAN_MspInit+0x68>)
 800066c:	429a      	cmp	r2, r3
 800066e:	d125      	bne.n	80006bc <HAL_CAN_MspInit+0x64>
 8000670:	f503 33d6 	add.w	r3, r3, #109568	@ 0x1ac00
 8000674:	69da      	ldr	r2, [r3, #28]
 8000676:	4813      	ldr	r0, [pc, #76]	@ (80006c4 <HAL_CAN_MspInit+0x6c>)
 8000678:	f042 7200 	orr.w	r2, r2, #33554432	@ 0x2000000
 800067c:	61da      	str	r2, [r3, #28]
 800067e:	69da      	ldr	r2, [r3, #28]
 8000680:	a902      	add	r1, sp, #8
 8000682:	f002 7200 	and.w	r2, r2, #33554432	@ 0x2000000
 8000686:	9200      	str	r2, [sp, #0]
 8000688:	9a00      	ldr	r2, [sp, #0]
 800068a:	699a      	ldr	r2, [r3, #24]
 800068c:	f042 0204 	orr.w	r2, r2, #4
 8000690:	619a      	str	r2, [r3, #24]
 8000692:	699b      	ldr	r3, [r3, #24]
 8000694:	f003 0304 	and.w	r3, r3, #4
 8000698:	9301      	str	r3, [sp, #4]
 800069a:	9b01      	ldr	r3, [sp, #4]
 800069c:	f44f 6300 	mov.w	r3, #2048	@ 0x800
 80006a0:	9302      	str	r3, [sp, #8]
 80006a2:	f000 fd83 	bl	80011ac <HAL_GPIO_Init>
 80006a6:	2302      	movs	r3, #2
 80006a8:	f44f 5280 	mov.w	r2, #4096	@ 0x1000
 80006ac:	e9cd 2302 	strd	r2, r3, [sp, #8]
 80006b0:	2303      	movs	r3, #3
 80006b2:	4804      	ldr	r0, [pc, #16]	@ (80006c4 <HAL_CAN_MspInit+0x6c>)
 80006b4:	a902      	add	r1, sp, #8
 80006b6:	9305      	str	r3, [sp, #20]
 80006b8:	f000 fd78 	bl	80011ac <HAL_GPIO_Init>
 80006bc:	b006      	add	sp, #24
 80006be:	bd10      	pop	{r4, pc}
 80006c0:	40006400 	.word	0x40006400
 80006c4:	40010800 	.word	0x40010800

080006c8 <HAL_SPI_MspInit>:
 80006c8:	b510      	push	{r4, lr}
 80006ca:	4604      	mov	r4, r0
 80006cc:	b086      	sub	sp, #24
 80006ce:	2210      	movs	r2, #16
 80006d0:	2100      	movs	r1, #0
 80006d2:	a802      	add	r0, sp, #8
 80006d4:	f001 fe7a 	bl	80023cc <memset>
 80006d8:	6822      	ldr	r2, [r4, #0]
 80006da:	4b11      	ldr	r3, [pc, #68]	@ (8000720 <HAL_SPI_MspInit+0x58>)
 80006dc:	429a      	cmp	r2, r3
 80006de:	d11d      	bne.n	800071c <HAL_SPI_MspInit+0x54>
 80006e0:	f503 4360 	add.w	r3, r3, #57344	@ 0xe000
 80006e4:	699a      	ldr	r2, [r3, #24]
 80006e6:	480f      	ldr	r0, [pc, #60]	@ (8000724 <HAL_SPI_MspInit+0x5c>)
 80006e8:	f442 5280 	orr.w	r2, r2, #4096	@ 0x1000
 80006ec:	619a      	str	r2, [r3, #24]
 80006ee:	699a      	ldr	r2, [r3, #24]
 80006f0:	a902      	add	r1, sp, #8
 80006f2:	f402 5280 	and.w	r2, r2, #4096	@ 0x1000
 80006f6:	9200      	str	r2, [sp, #0]
 80006f8:	9a00      	ldr	r2, [sp, #0]
 80006fa:	699a      	ldr	r2, [r3, #24]
 80006fc:	f042 0204 	orr.w	r2, r2, #4
 8000700:	619a      	str	r2, [r3, #24]
 8000702:	699b      	ldr	r3, [r3, #24]
 8000704:	22a0      	movs	r2, #160	@ 0xa0
 8000706:	f003 0304 	and.w	r3, r3, #4
 800070a:	9301      	str	r3, [sp, #4]
 800070c:	9b01      	ldr	r3, [sp, #4]
 800070e:	2302      	movs	r3, #2
 8000710:	e9cd 2302 	strd	r2, r3, [sp, #8]
 8000714:	2303      	movs	r3, #3
 8000716:	9305      	str	r3, [sp, #20]
 8000718:	f000 fd48 	bl	80011ac <HAL_GPIO_Init>
 800071c:	b006      	add	sp, #24
 800071e:	bd10      	pop	{r4, pc}
 8000720:	40013000 	.word	0x40013000
 8000724:	40010800 	.word	0x40010800

08000728 <NMI_Handler>:
 8000728:	e7fe      	b.n	8000728 <NMI_Handler>

0800072a <HardFault_Handler>:
 800072a:	e7fe      	b.n	800072a <HardFault_Handler>

0800072c <MemManage_Handler>:
 800072c:	e7fe      	b.n	800072c <MemManage_Handler>

0800072e <BusFault_Handler>:
 800072e:	e7fe      	b.n	800072e <BusFault_Handler>

08000730 <UsageFault_Handler>:
 8000730:	e7fe      	b.n	8000730 <UsageFault_Handler>

08000732 <SVC_Handler>:
 8000732:	4770      	bx	lr

08000734 <DebugMon_Handler>:
 8000734:	4770      	bx	lr

08000736 <PendSV_Handler>:
 8000736:	4770      	bx	lr

08000738 <SysTick_Handler>:
 8000738:	f000 b87e 	b.w	8000838 <HAL_IncTick>

0800073c <_sbrk>:
 800073c:	4a0b      	ldr	r2, [pc, #44]	@ (800076c <_sbrk+0x30>)
 800073e:	4603      	mov	r3, r0
 8000740:	6811      	ldr	r1, [r2, #0]
 8000742:	b510      	push	{r4, lr}
 8000744:	b909      	cbnz	r1, 800074a <_sbrk+0xe>
 8000746:	490a      	ldr	r1, [pc, #40]	@ (8000770 <_sbrk+0x34>)
 8000748:	6011      	str	r1, [r2, #0]
 800074a:	6810      	ldr	r0, [r2, #0]
 800074c:	4909      	ldr	r1, [pc, #36]	@ (8000774 <_sbrk+0x38>)
 800074e:	4c0a      	ldr	r4, [pc, #40]	@ (8000778 <_sbrk+0x3c>)
 8000750:	4403      	add	r3, r0
 8000752:	1b09      	subs	r1, r1, r4
 8000754:	428b      	cmp	r3, r1
 8000756:	d906      	bls.n	8000766 <_sbrk+0x2a>
 8000758:	f001 fe40 	bl	80023dc <__errno>
 800075c:	230c      	movs	r3, #12
 800075e:	6003      	str	r3, [r0, #0]
 8000760:	f04f 30ff 	mov.w	r0, #4294967295	@ 0xffffffff
 8000764:	bd10      	pop	{r4, pc}
 8000766:	6013      	str	r3, [r2, #0]
 8000768:	e7fc      	b.n	8000764 <_sbrk+0x28>
 800076a:	bf00      	nop
 800076c:	20000160 	.word	0x20000160
 8000770:	20000360 	.word	0x20000360
 8000774:	20005000 	.word	0x20005000
 8000778:	00000400 	.word	0x00000400

0800077c <SystemInit>:
 800077c:	4770      	bx	lr
	...

08000780 <Reset_Handler>:
 8000780:	f7ff fffc 	bl	800077c <SystemInit>
 8000784:	480b      	ldr	r0, [pc, #44]	@ (80007b4 <LoopFillZerobss+0xe>)
 8000786:	490c      	ldr	r1, [pc, #48]	@ (80007b8 <LoopFillZerobss+0x12>)
 8000788:	4a0c      	ldr	r2, [pc, #48]	@ (80007bc <LoopFillZerobss+0x16>)
 800078a:	2300      	movs	r3, #0
 800078c:	e002      	b.n	8000794 <LoopCopyDataInit>

0800078e <CopyDataInit>:
 800078e:	58d4      	ldr	r4, [r2, r3]
 8000790:	50c4      	str	r4, [r0, r3]
 8000792:	3304      	adds	r3, #4

08000794 <LoopCopyDataInit>:
 8000794:	18c4      	adds	r4, r0, r3
 8000796:	428c      	cmp	r4, r1
 8000798:	d3f9      	bcc.n	800078e <CopyDataInit>
 800079a:	4a09      	ldr	r2, [pc, #36]	@ (80007c0 <LoopFillZerobss+0x1a>)
 800079c:	4c09      	ldr	r4, [pc, #36]	@ (80007c4 <LoopFillZerobss+0x1e>)
 800079e:	2300      	movs	r3, #0
 80007a0:	e001      	b.n	80007a6 <LoopFillZerobss>

080007a2 <FillZerobss>:
 80007a2:	6013      	str	r3, [r2, #0]
 80007a4:	3204      	adds	r2, #4

080007a6 <LoopFillZerobss>:
 80007a6:	42a2      	cmp	r2, r4
 80007a8:	d3fb      	bcc.n	80007a2 <FillZerobss>
 80007aa:	f001 fe1d 	bl	80023e8 <__libc_init_array>
 80007ae:	f7ff fd45 	bl	800023c <main>
 80007b2:	4770      	bx	lr
 80007b4:	20000000 	.word	0x20000000
 80007b8:	20000070 	.word	0x20000070
 80007bc:	08003170 	.word	0x08003170
 80007c0:	20000070 	.word	0x20000070
 80007c4:	20000360 	.word	0x20000360

080007c8 <ADC1_2_IRQHandler>:
 80007c8:	e7fe      	b.n	80007c8 <ADC1_2_IRQHandler>
	...

080007cc <HAL_InitTick>:
 80007cc:	b538      	push	{r3, r4, r5, lr}
 80007ce:	4b0e      	ldr	r3, [pc, #56]	@ (8000808 <HAL_InitTick+0x3c>)
 80007d0:	4605      	mov	r5, r0
 80007d2:	781a      	ldrb	r2, [r3, #0]
 80007d4:	f44f 737a 	mov.w	r3, #1000	@ 0x3e8
 80007d8:	fbb3 f3f2 	udiv	r3, r3, r2
 80007dc:	4a0b      	ldr	r2, [pc, #44]	@ (800080c <HAL_InitTick+0x40>)
 80007de:	6810      	ldr	r0, [r2, #0]
 80007e0:	fbb0 f0f3 	udiv	r0, r0, r3
 80007e4:	f000 fcce 	bl	8001184 <HAL_SYSTICK_Config>
 80007e8:	4604      	mov	r4, r0
 80007ea:	b958      	cbnz	r0, 8000804 <HAL_InitTick+0x38>
 80007ec:	2d0f      	cmp	r5, #15
 80007ee:	d809      	bhi.n	8000804 <HAL_InitTick+0x38>
 80007f0:	4602      	mov	r2, r0
 80007f2:	4629      	mov	r1, r5
 80007f4:	f04f 30ff 	mov.w	r0, #4294967295	@ 0xffffffff
 80007f8:	f000 fc94 	bl	8001124 <HAL_NVIC_SetPriority>
 80007fc:	4620      	mov	r0, r4
 80007fe:	4b04      	ldr	r3, [pc, #16]	@ (8000810 <HAL_InitTick+0x44>)
 8000800:	601d      	str	r5, [r3, #0]
 8000802:	bd38      	pop	{r3, r4, r5, pc}
 8000804:	2001      	movs	r0, #1
 8000806:	e7fc      	b.n	8000802 <HAL_InitTick+0x36>
 8000808:	20000004 	.word	0x20000004
 800080c:	20000000 	.word	0x20000000
 8000810:	20000008 	.word	0x20000008

08000814 <HAL_Init>:
 8000814:	4a07      	ldr	r2, [pc, #28]	@ (8000834 <HAL_Init+0x20>)
 8000816:	b508      	push	{r3, lr}
 8000818:	6813      	ldr	r3, [r2, #0]
 800081a:	2003      	movs	r0, #3
 800081c:	f043 0310 	orr.w	r3, r3, #16
 8000820:	6013      	str	r3, [r2, #0]
 8000822:	f000 fc6d 	bl	8001100 <HAL_NVIC_SetPriorityGrouping>
 8000826:	200f      	movs	r0, #15
 8000828:	f7ff ffd0 	bl	80007cc <HAL_InitTick>
 800082c:	f7ff fec4 	bl	80005b8 <HAL_MspInit>
 8000830:	2000      	movs	r0, #0
 8000832:	bd08      	pop	{r3, pc}
 8000834:	40022000 	.word	0x40022000

08000838 <HAL_IncTick>:
 8000838:	4a03      	ldr	r2, [pc, #12]	@ (8000848 <HAL_IncTick+0x10>)
 800083a:	4b04      	ldr	r3, [pc, #16]	@ (800084c <HAL_IncTick+0x14>)
 800083c:	6811      	ldr	r1, [r2, #0]
 800083e:	781b      	ldrb	r3, [r3, #0]
 8000840:	440b      	add	r3, r1
 8000842:	6013      	str	r3, [r2, #0]
 8000844:	4770      	bx	lr
 8000846:	bf00      	nop
 8000848:	20000164 	.word	0x20000164
 800084c:	20000004 	.word	0x20000004

08000850 <HAL_GetTick>:
 8000850:	4b01      	ldr	r3, [pc, #4]	@ (8000858 <HAL_GetTick+0x8>)
 8000852:	6818      	ldr	r0, [r3, #0]
 8000854:	4770      	bx	lr
 8000856:	bf00      	nop
 8000858:	20000164 	.word	0x20000164

0800085c <HAL_ADC_PollForConversion>:
 800085c:	b5f7      	push	{r0, r1, r2, r4, r5, r6, r7, lr}
 800085e:	2600      	movs	r6, #0
 8000860:	4604      	mov	r4, r0
 8000862:	460d      	mov	r5, r1
 8000864:	9601      	str	r6, [sp, #4]
 8000866:	f7ff fff3 	bl	8000850 <HAL_GetTick>
 800086a:	6823      	ldr	r3, [r4, #0]
 800086c:	4607      	mov	r7, r0
 800086e:	689a      	ldr	r2, [r3, #8]
 8000870:	05d1      	lsls	r1, r2, #23
 8000872:	d508      	bpl.n	8000886 <HAL_ADC_PollForConversion+0x2a>
 8000874:	2001      	movs	r0, #1
 8000876:	6aa3      	ldr	r3, [r4, #40]	@ 0x28
 8000878:	f884 6024 	strb.w	r6, [r4, #36]	@ 0x24
 800087c:	f043 0320 	orr.w	r3, r3, #32
 8000880:	62a3      	str	r3, [r4, #40]	@ 0x28
 8000882:	b003      	add	sp, #12
 8000884:	bdf0      	pop	{r4, r5, r6, r7, pc}
 8000886:	685a      	ldr	r2, [r3, #4]
 8000888:	05d2      	lsls	r2, r2, #23
 800088a:	d403      	bmi.n	8000894 <HAL_ADC_PollForConversion+0x38>
 800088c:	6adb      	ldr	r3, [r3, #44]	@ 0x2c
 800088e:	f413 0f70 	tst.w	r3, #15728640	@ 0xf00000
 8000892:	d03d      	beq.n	8000910 <HAL_ADC_PollForConversion+0xb4>
 8000894:	4b3d      	ldr	r3, [pc, #244]	@ (800098c <HAL_ADC_PollForConversion+0x130>)
 8000896:	2002      	movs	r0, #2
 8000898:	681e      	ldr	r6, [r3, #0]
 800089a:	f001 f849 	bl	8001930 <HAL_RCCEx_GetPeriphCLKFreq>
 800089e:	6823      	ldr	r3, [r4, #0]
 80008a0:	4a3b      	ldr	r2, [pc, #236]	@ (8000990 <HAL_ADC_PollForConversion+0x134>)
 80008a2:	6919      	ldr	r1, [r3, #16]
 80008a4:	fbb6 f6f0 	udiv	r6, r6, r0
 80008a8:	4211      	tst	r1, r2
 80008aa:	4a3a      	ldr	r2, [pc, #232]	@ (8000994 <HAL_ADC_PollForConversion+0x138>)
 80008ac:	d151      	bne.n	8000952 <HAL_ADC_PollForConversion+0xf6>
 80008ae:	68d8      	ldr	r0, [r3, #12]
 80008b0:	4939      	ldr	r1, [pc, #228]	@ (8000998 <HAL_ADC_PollForConversion+0x13c>)
 80008b2:	4208      	tst	r0, r1
 80008b4:	d14d      	bne.n	8000952 <HAL_ADC_PollForConversion+0xf6>
 80008b6:	6919      	ldr	r1, [r3, #16]
 80008b8:	4211      	tst	r1, r2
 80008ba:	d15b      	bne.n	8000974 <HAL_ADC_PollForConversion+0x118>
 80008bc:	68da      	ldr	r2, [r3, #12]
 80008be:	4b37      	ldr	r3, [pc, #220]	@ (800099c <HAL_ADC_PollForConversion+0x140>)
 80008c0:	421a      	tst	r2, r3
 80008c2:	bf0c      	ite	eq
 80008c4:	2314      	moveq	r3, #20
 80008c6:	2329      	movne	r3, #41	@ 0x29
 80008c8:	435e      	muls	r6, r3
 80008ca:	9b01      	ldr	r3, [sp, #4]
 80008cc:	42b3      	cmp	r3, r6
 80008ce:	d223      	bcs.n	8000918 <HAL_ADC_PollForConversion+0xbc>
 80008d0:	1c6a      	adds	r2, r5, #1
 80008d2:	d004      	beq.n	80008de <HAL_ADC_PollForConversion+0x82>
 80008d4:	2d00      	cmp	r5, #0
 80008d6:	d153      	bne.n	8000980 <HAL_ADC_PollForConversion+0x124>
 80008d8:	9b01      	ldr	r3, [sp, #4]
 80008da:	42b3      	cmp	r3, r6
 80008dc:	d30a      	bcc.n	80008f4 <HAL_ADC_PollForConversion+0x98>
 80008de:	9b01      	ldr	r3, [sp, #4]
 80008e0:	3301      	adds	r3, #1
 80008e2:	9301      	str	r3, [sp, #4]
 80008e4:	e7f1      	b.n	80008ca <HAL_ADC_PollForConversion+0x6e>
 80008e6:	1c6e      	adds	r6, r5, #1
 80008e8:	d013      	beq.n	8000912 <HAL_ADC_PollForConversion+0xb6>
 80008ea:	b965      	cbnz	r5, 8000906 <HAL_ADC_PollForConversion+0xaa>
 80008ec:	6823      	ldr	r3, [r4, #0]
 80008ee:	681b      	ldr	r3, [r3, #0]
 80008f0:	0798      	lsls	r0, r3, #30
 80008f2:	d40d      	bmi.n	8000910 <HAL_ADC_PollForConversion+0xb4>
 80008f4:	6aa3      	ldr	r3, [r4, #40]	@ 0x28
 80008f6:	2003      	movs	r0, #3
 80008f8:	f043 0304 	orr.w	r3, r3, #4
 80008fc:	62a3      	str	r3, [r4, #40]	@ 0x28
 80008fe:	2300      	movs	r3, #0
 8000900:	f884 3024 	strb.w	r3, [r4, #36]	@ 0x24
 8000904:	e7bd      	b.n	8000882 <HAL_ADC_PollForConversion+0x26>
 8000906:	f7ff ffa3 	bl	8000850 <HAL_GetTick>
 800090a:	1bc0      	subs	r0, r0, r7
 800090c:	42a8      	cmp	r0, r5
 800090e:	d8ed      	bhi.n	80008ec <HAL_ADC_PollForConversion+0x90>
 8000910:	6822      	ldr	r2, [r4, #0]
 8000912:	6813      	ldr	r3, [r2, #0]
 8000914:	0799      	lsls	r1, r3, #30
 8000916:	d5e6      	bpl.n	80008e6 <HAL_ADC_PollForConversion+0x8a>
 8000918:	f06f 0312 	mvn.w	r3, #18
 800091c:	6822      	ldr	r2, [r4, #0]
 800091e:	6013      	str	r3, [r2, #0]
 8000920:	6aa3      	ldr	r3, [r4, #40]	@ 0x28
 8000922:	f443 7300 	orr.w	r3, r3, #512	@ 0x200
 8000926:	62a3      	str	r3, [r4, #40]	@ 0x28
 8000928:	6893      	ldr	r3, [r2, #8]
 800092a:	f403 2360 	and.w	r3, r3, #917504	@ 0xe0000
 800092e:	f5b3 2f60 	cmp.w	r3, #917504	@ 0xe0000
 8000932:	d10c      	bne.n	800094e <HAL_ADC_PollForConversion+0xf2>
 8000934:	7b23      	ldrb	r3, [r4, #12]
 8000936:	b953      	cbnz	r3, 800094e <HAL_ADC_PollForConversion+0xf2>
 8000938:	6aa3      	ldr	r3, [r4, #40]	@ 0x28
 800093a:	f423 7380 	bic.w	r3, r3, #256	@ 0x100
 800093e:	62a3      	str	r3, [r4, #40]	@ 0x28
 8000940:	6aa3      	ldr	r3, [r4, #40]	@ 0x28
 8000942:	04db      	lsls	r3, r3, #19
 8000944:	d403      	bmi.n	800094e <HAL_ADC_PollForConversion+0xf2>
 8000946:	6aa3      	ldr	r3, [r4, #40]	@ 0x28
 8000948:	f043 0301 	orr.w	r3, r3, #1
 800094c:	62a3      	str	r3, [r4, #40]	@ 0x28
 800094e:	2000      	movs	r0, #0
 8000950:	e797      	b.n	8000882 <HAL_ADC_PollForConversion+0x26>
 8000952:	6919      	ldr	r1, [r3, #16]
 8000954:	4211      	tst	r1, r2
 8000956:	d103      	bne.n	8000960 <HAL_ADC_PollForConversion+0x104>
 8000958:	68d9      	ldr	r1, [r3, #12]
 800095a:	4a10      	ldr	r2, [pc, #64]	@ (800099c <HAL_ADC_PollForConversion+0x140>)
 800095c:	4211      	tst	r1, r2
 800095e:	d00b      	beq.n	8000978 <HAL_ADC_PollForConversion+0x11c>
 8000960:	6919      	ldr	r1, [r3, #16]
 8000962:	4a0f      	ldr	r2, [pc, #60]	@ (80009a0 <HAL_ADC_PollForConversion+0x144>)
 8000964:	4211      	tst	r1, r2
 8000966:	d109      	bne.n	800097c <HAL_ADC_PollForConversion+0x120>
 8000968:	68db      	ldr	r3, [r3, #12]
 800096a:	4213      	tst	r3, r2
 800096c:	bf0c      	ite	eq
 800096e:	2354      	moveq	r3, #84	@ 0x54
 8000970:	23fc      	movne	r3, #252	@ 0xfc
 8000972:	e7a9      	b.n	80008c8 <HAL_ADC_PollForConversion+0x6c>
 8000974:	2329      	movs	r3, #41	@ 0x29
 8000976:	e7a7      	b.n	80008c8 <HAL_ADC_PollForConversion+0x6c>
 8000978:	2354      	movs	r3, #84	@ 0x54
 800097a:	e7a5      	b.n	80008c8 <HAL_ADC_PollForConversion+0x6c>
 800097c:	23fc      	movs	r3, #252	@ 0xfc
 800097e:	e7a3      	b.n	80008c8 <HAL_ADC_PollForConversion+0x6c>
 8000980:	f7ff ff66 	bl	8000850 <HAL_GetTick>
 8000984:	1bc0      	subs	r0, r0, r7
 8000986:	42a8      	cmp	r0, r5
 8000988:	d8a6      	bhi.n	80008d8 <HAL_ADC_PollForConversion+0x7c>
 800098a:	e7a8      	b.n	80008de <HAL_ADC_PollForConversion+0x82>
 800098c:	20000000 	.word	0x20000000
 8000990:	24924924 	.word	0x24924924
 8000994:	12492492 	.word	0x12492492
 8000998:	00924924 	.word	0x00924924
 800099c:	00492492 	.word	0x00492492
 80009a0:	00249249 	.word	0x00249249

080009a4 <HAL_ADC_GetValue>:
 80009a4:	6803      	ldr	r3, [r0, #0]
 80009a6:	6cd8      	ldr	r0, [r3, #76]	@ 0x4c
 80009a8:	4770      	bx	lr
	...

080009ac <HAL_ADC_ConfigChannel>:
 80009ac:	2300      	movs	r3, #0
 80009ae:	b573      	push	{r0, r1, r4, r5, r6, lr}
 80009b0:	9301      	str	r3, [sp, #4]
 80009b2:	f890 3024 	ldrb.w	r3, [r0, #36]	@ 0x24
 80009b6:	4604      	mov	r4, r0
 80009b8:	2b01      	cmp	r3, #1
 80009ba:	d06c      	beq.n	8000a96 <HAL_ADC_ConfigChannel+0xea>
 80009bc:	2301      	movs	r3, #1
 80009be:	f880 3024 	strb.w	r3, [r0, #36]	@ 0x24
 80009c2:	684d      	ldr	r5, [r1, #4]
 80009c4:	6802      	ldr	r2, [r0, #0]
 80009c6:	2d06      	cmp	r5, #6
 80009c8:	6808      	ldr	r0, [r1, #0]
 80009ca:	eb05 0385 	add.w	r3, r5, r5, lsl #2
 80009ce:	d822      	bhi.n	8000a16 <HAL_ADC_ConfigChannel+0x6a>
 80009d0:	261f      	movs	r6, #31
 80009d2:	6b55      	ldr	r5, [r2, #52]	@ 0x34
 80009d4:	3b05      	subs	r3, #5
 80009d6:	409e      	lsls	r6, r3
 80009d8:	ea25 0506 	bic.w	r5, r5, r6
 80009dc:	fa00 f303 	lsl.w	r3, r0, r3
 80009e0:	432b      	orrs	r3, r5
 80009e2:	6353      	str	r3, [r2, #52]	@ 0x34
 80009e4:	2809      	cmp	r0, #9
 80009e6:	688b      	ldr	r3, [r1, #8]
 80009e8:	eb00 0540 	add.w	r5, r0, r0, lsl #1
 80009ec:	f04f 0107 	mov.w	r1, #7
 80009f0:	d929      	bls.n	8000a46 <HAL_ADC_ConfigChannel+0x9a>
 80009f2:	68d6      	ldr	r6, [r2, #12]
 80009f4:	3d1e      	subs	r5, #30
 80009f6:	40a9      	lsls	r1, r5
 80009f8:	ea26 0101 	bic.w	r1, r6, r1
 80009fc:	40ab      	lsls	r3, r5
 80009fe:	430b      	orrs	r3, r1
 8000a00:	60d3      	str	r3, [r2, #12]
 8000a02:	f1a0 0310 	sub.w	r3, r0, #16
 8000a06:	2b01      	cmp	r3, #1
 8000a08:	d925      	bls.n	8000a56 <HAL_ADC_ConfigChannel+0xaa>
 8000a0a:	2000      	movs	r0, #0
 8000a0c:	2300      	movs	r3, #0
 8000a0e:	f884 3024 	strb.w	r3, [r4, #36]	@ 0x24
 8000a12:	b002      	add	sp, #8
 8000a14:	bd70      	pop	{r4, r5, r6, pc}
 8000a16:	2d0c      	cmp	r5, #12
 8000a18:	f04f 051f 	mov.w	r5, #31
 8000a1c:	d809      	bhi.n	8000a32 <HAL_ADC_ConfigChannel+0x86>
 8000a1e:	6b16      	ldr	r6, [r2, #48]	@ 0x30
 8000a20:	3b23      	subs	r3, #35	@ 0x23
 8000a22:	409d      	lsls	r5, r3
 8000a24:	ea26 0505 	bic.w	r5, r6, r5
 8000a28:	fa00 f303 	lsl.w	r3, r0, r3
 8000a2c:	432b      	orrs	r3, r5
 8000a2e:	6313      	str	r3, [r2, #48]	@ 0x30
 8000a30:	e7d8      	b.n	80009e4 <HAL_ADC_ConfigChannel+0x38>
 8000a32:	6ad6      	ldr	r6, [r2, #44]	@ 0x2c
 8000a34:	3b41      	subs	r3, #65	@ 0x41
 8000a36:	409d      	lsls	r5, r3
 8000a38:	ea26 0505 	bic.w	r5, r6, r5
 8000a3c:	fa00 f303 	lsl.w	r3, r0, r3
 8000a40:	432b      	orrs	r3, r5
 8000a42:	62d3      	str	r3, [r2, #44]	@ 0x2c
 8000a44:	e7ce      	b.n	80009e4 <HAL_ADC_ConfigChannel+0x38>
 8000a46:	6910      	ldr	r0, [r2, #16]
 8000a48:	40a9      	lsls	r1, r5
 8000a4a:	ea20 0101 	bic.w	r1, r0, r1
 8000a4e:	40ab      	lsls	r3, r5
 8000a50:	430b      	orrs	r3, r1
 8000a52:	6113      	str	r3, [r2, #16]
 8000a54:	e7d9      	b.n	8000a0a <HAL_ADC_ConfigChannel+0x5e>
 8000a56:	4b11      	ldr	r3, [pc, #68]	@ (8000a9c <HAL_ADC_ConfigChannel+0xf0>)
 8000a58:	429a      	cmp	r2, r3
 8000a5a:	d116      	bne.n	8000a8a <HAL_ADC_ConfigChannel+0xde>
 8000a5c:	6893      	ldr	r3, [r2, #8]
 8000a5e:	021b      	lsls	r3, r3, #8
 8000a60:	d4d3      	bmi.n	8000a0a <HAL_ADC_ConfigChannel+0x5e>
 8000a62:	6893      	ldr	r3, [r2, #8]
 8000a64:	2810      	cmp	r0, #16
 8000a66:	f443 0300 	orr.w	r3, r3, #8388608	@ 0x800000
 8000a6a:	6093      	str	r3, [r2, #8]
 8000a6c:	d1cd      	bne.n	8000a0a <HAL_ADC_ConfigChannel+0x5e>
 8000a6e:	4b0c      	ldr	r3, [pc, #48]	@ (8000aa0 <HAL_ADC_ConfigChannel+0xf4>)
 8000a70:	4a0c      	ldr	r2, [pc, #48]	@ (8000aa4 <HAL_ADC_ConfigChannel+0xf8>)
 8000a72:	681b      	ldr	r3, [r3, #0]
 8000a74:	fbb3 f3f2 	udiv	r3, r3, r2
 8000a78:	220a      	movs	r2, #10
 8000a7a:	4353      	muls	r3, r2
 8000a7c:	9301      	str	r3, [sp, #4]
 8000a7e:	9b01      	ldr	r3, [sp, #4]
 8000a80:	2b00      	cmp	r3, #0
 8000a82:	d0c2      	beq.n	8000a0a <HAL_ADC_ConfigChannel+0x5e>
 8000a84:	9b01      	ldr	r3, [sp, #4]
 8000a86:	3b01      	subs	r3, #1
 8000a88:	e7f8      	b.n	8000a7c <HAL_ADC_ConfigChannel+0xd0>
 8000a8a:	6aa3      	ldr	r3, [r4, #40]	@ 0x28
 8000a8c:	2001      	movs	r0, #1
 8000a8e:	f043 0320 	orr.w	r3, r3, #32
 8000a92:	62a3      	str	r3, [r4, #40]	@ 0x28
 8000a94:	e7ba      	b.n	8000a0c <HAL_ADC_ConfigChannel+0x60>
 8000a96:	2002      	movs	r0, #2
 8000a98:	e7bb      	b.n	8000a12 <HAL_ADC_ConfigChannel+0x66>
 8000a9a:	bf00      	nop
 8000a9c:	40012400 	.word	0x40012400
 8000aa0:	20000000 	.word	0x20000000
 8000aa4:	000f4240 	.word	0x000f4240

08000aa8 <ADC_Enable>:
 8000aa8:	2300      	movs	r3, #0
 8000aaa:	b537      	push	{r0, r1, r2, r4, r5, lr}
 8000aac:	9301      	str	r3, [sp, #4]
 8000aae:	6803      	ldr	r3, [r0, #0]
 8000ab0:	4604      	mov	r4, r0
 8000ab2:	689a      	ldr	r2, [r3, #8]
 8000ab4:	07d2      	lsls	r2, r2, #31
 8000ab6:	d502      	bpl.n	8000abe <ADC_Enable+0x16>
 8000ab8:	2000      	movs	r0, #0
 8000aba:	b003      	add	sp, #12
 8000abc:	bd30      	pop	{r4, r5, pc}
 8000abe:	689a      	ldr	r2, [r3, #8]
 8000ac0:	f042 0201 	orr.w	r2, r2, #1
 8000ac4:	609a      	str	r2, [r3, #8]
 8000ac6:	4b14      	ldr	r3, [pc, #80]	@ (8000b18 <ADC_Enable+0x70>)
 8000ac8:	4a14      	ldr	r2, [pc, #80]	@ (8000b1c <ADC_Enable+0x74>)
 8000aca:	681b      	ldr	r3, [r3, #0]
 8000acc:	fbb3 f3f2 	udiv	r3, r3, r2
 8000ad0:	9301      	str	r3, [sp, #4]
 8000ad2:	9b01      	ldr	r3, [sp, #4]
 8000ad4:	b9e3      	cbnz	r3, 8000b10 <ADC_Enable+0x68>
 8000ad6:	f7ff febb 	bl	8000850 <HAL_GetTick>
 8000ada:	4605      	mov	r5, r0
 8000adc:	6823      	ldr	r3, [r4, #0]
 8000ade:	689b      	ldr	r3, [r3, #8]
 8000ae0:	07db      	lsls	r3, r3, #31
 8000ae2:	d4e9      	bmi.n	8000ab8 <ADC_Enable+0x10>
 8000ae4:	f7ff feb4 	bl	8000850 <HAL_GetTick>
 8000ae8:	1b40      	subs	r0, r0, r5
 8000aea:	2802      	cmp	r0, #2
 8000aec:	d9f6      	bls.n	8000adc <ADC_Enable+0x34>
 8000aee:	6823      	ldr	r3, [r4, #0]
 8000af0:	689b      	ldr	r3, [r3, #8]
 8000af2:	f013 0301 	ands.w	r3, r3, #1
 8000af6:	d1f1      	bne.n	8000adc <ADC_Enable+0x34>
 8000af8:	6aa2      	ldr	r2, [r4, #40]	@ 0x28
 8000afa:	2001      	movs	r0, #1
 8000afc:	f042 0210 	orr.w	r2, r2, #16
 8000b00:	62a2      	str	r2, [r4, #40]	@ 0x28
 8000b02:	6ae2      	ldr	r2, [r4, #44]	@ 0x2c
 8000b04:	f884 3024 	strb.w	r3, [r4, #36]	@ 0x24
 8000b08:	f042 0201 	orr.w	r2, r2, #1
 8000b0c:	62e2      	str	r2, [r4, #44]	@ 0x2c
 8000b0e:	e7d4      	b.n	8000aba <ADC_Enable+0x12>
 8000b10:	9b01      	ldr	r3, [sp, #4]
 8000b12:	3b01      	subs	r3, #1
 8000b14:	e7dc      	b.n	8000ad0 <ADC_Enable+0x28>
 8000b16:	bf00      	nop
 8000b18:	20000000 	.word	0x20000000
 8000b1c:	000f4240 	.word	0x000f4240

08000b20 <HAL_ADC_Start>:
 8000b20:	b510      	push	{r4, lr}
 8000b22:	f890 3024 	ldrb.w	r3, [r0, #36]	@ 0x24
 8000b26:	4604      	mov	r4, r0
 8000b28:	2b01      	cmp	r3, #1
 8000b2a:	d054      	beq.n	8000bd6 <HAL_ADC_Start+0xb6>
 8000b2c:	2301      	movs	r3, #1
 8000b2e:	f880 3024 	strb.w	r3, [r0, #36]	@ 0x24
 8000b32:	f7ff ffb9 	bl	8000aa8 <ADC_Enable>
 8000b36:	2800      	cmp	r0, #0
 8000b38:	d149      	bne.n	8000bce <HAL_ADC_Start+0xae>
 8000b3a:	6aa3      	ldr	r3, [r4, #40]	@ 0x28
 8000b3c:	4a27      	ldr	r2, [pc, #156]	@ (8000bdc <HAL_ADC_Start+0xbc>)
 8000b3e:	f423 7340 	bic.w	r3, r3, #768	@ 0x300
 8000b42:	f023 0301 	bic.w	r3, r3, #1
 8000b46:	f443 7380 	orr.w	r3, r3, #256	@ 0x100
 8000b4a:	62a3      	str	r3, [r4, #40]	@ 0x28
 8000b4c:	6823      	ldr	r3, [r4, #0]
 8000b4e:	4293      	cmp	r3, r2
 8000b50:	d104      	bne.n	8000b5c <HAL_ADC_Start+0x3c>
 8000b52:	4923      	ldr	r1, [pc, #140]	@ (8000be0 <HAL_ADC_Start+0xc0>)
 8000b54:	684a      	ldr	r2, [r1, #4]
 8000b56:	f412 2f70 	tst.w	r2, #983040	@ 0xf0000
 8000b5a:	d12e      	bne.n	8000bba <HAL_ADC_Start+0x9a>
 8000b5c:	6aa2      	ldr	r2, [r4, #40]	@ 0x28
 8000b5e:	f422 1280 	bic.w	r2, r2, #1048576	@ 0x100000
 8000b62:	62a2      	str	r2, [r4, #40]	@ 0x28
 8000b64:	685a      	ldr	r2, [r3, #4]
 8000b66:	0552      	lsls	r2, r2, #21
 8000b68:	bf41      	itttt	mi
 8000b6a:	6aa2      	ldrmi	r2, [r4, #40]	@ 0x28
 8000b6c:	f422 5240 	bicmi.w	r2, r2, #12288	@ 0x3000
 8000b70:	f442 5280 	orrmi.w	r2, r2, #4096	@ 0x1000
 8000b74:	62a2      	strmi	r2, [r4, #40]	@ 0x28
 8000b76:	6aa2      	ldr	r2, [r4, #40]	@ 0x28
 8000b78:	f412 5280 	ands.w	r2, r2, #4096	@ 0x1000
 8000b7c:	bf1c      	itt	ne
 8000b7e:	6ae2      	ldrne	r2, [r4, #44]	@ 0x2c
 8000b80:	f022 0206 	bicne.w	r2, r2, #6
 8000b84:	62e2      	str	r2, [r4, #44]	@ 0x2c
 8000b86:	2200      	movs	r2, #0
 8000b88:	f884 2024 	strb.w	r2, [r4, #36]	@ 0x24
 8000b8c:	f06f 0202 	mvn.w	r2, #2
 8000b90:	601a      	str	r2, [r3, #0]
 8000b92:	689a      	ldr	r2, [r3, #8]
 8000b94:	f402 2260 	and.w	r2, r2, #917504	@ 0xe0000
 8000b98:	f5b2 2f60 	cmp.w	r2, #917504	@ 0xe0000
 8000b9c:	d113      	bne.n	8000bc6 <HAL_ADC_Start+0xa6>
 8000b9e:	4a0f      	ldr	r2, [pc, #60]	@ (8000bdc <HAL_ADC_Start+0xbc>)
 8000ba0:	4293      	cmp	r3, r2
 8000ba2:	d105      	bne.n	8000bb0 <HAL_ADC_Start+0x90>
 8000ba4:	f5a2 6280 	sub.w	r2, r2, #1024	@ 0x400
 8000ba8:	6852      	ldr	r2, [r2, #4]
 8000baa:	f412 2f70 	tst.w	r2, #983040	@ 0xf0000
 8000bae:	d10a      	bne.n	8000bc6 <HAL_ADC_Start+0xa6>
 8000bb0:	689a      	ldr	r2, [r3, #8]
 8000bb2:	f442 02a0 	orr.w	r2, r2, #5242880	@ 0x500000
 8000bb6:	609a      	str	r2, [r3, #8]
 8000bb8:	bd10      	pop	{r4, pc}
 8000bba:	6aa2      	ldr	r2, [r4, #40]	@ 0x28
 8000bbc:	f442 1280 	orr.w	r2, r2, #1048576	@ 0x100000
 8000bc0:	62a2      	str	r2, [r4, #40]	@ 0x28
 8000bc2:	684a      	ldr	r2, [r1, #4]
 8000bc4:	e7cf      	b.n	8000b66 <HAL_ADC_Start+0x46>
 8000bc6:	689a      	ldr	r2, [r3, #8]
 8000bc8:	f442 1280 	orr.w	r2, r2, #1048576	@ 0x100000
 8000bcc:	e7f3      	b.n	8000bb6 <HAL_ADC_Start+0x96>
 8000bce:	2300      	movs	r3, #0
 8000bd0:	f884 3024 	strb.w	r3, [r4, #36]	@ 0x24
 8000bd4:	e7f0      	b.n	8000bb8 <HAL_ADC_Start+0x98>
 8000bd6:	2002      	movs	r0, #2
 8000bd8:	e7ee      	b.n	8000bb8 <HAL_ADC_Start+0x98>
 8000bda:	bf00      	nop
 8000bdc:	40012800 	.word	0x40012800
 8000be0:	40012400 	.word	0x40012400

08000be4 <ADC_ConversionStop_Disable>:
 8000be4:	b538      	push	{r3, r4, r5, lr}
 8000be6:	6803      	ldr	r3, [r0, #0]
 8000be8:	4604      	mov	r4, r0
 8000bea:	689a      	ldr	r2, [r3, #8]
 8000bec:	07d1      	lsls	r1, r2, #31
 8000bee:	d401      	bmi.n	8000bf4 <ADC_ConversionStop_Disable+0x10>
 8000bf0:	2000      	movs	r0, #0
 8000bf2:	bd38      	pop	{r3, r4, r5, pc}
 8000bf4:	689a      	ldr	r2, [r3, #8]
 8000bf6:	f022 0201 	bic.w	r2, r2, #1
 8000bfa:	609a      	str	r2, [r3, #8]
 8000bfc:	f7ff fe28 	bl	8000850 <HAL_GetTick>
 8000c00:	4605      	mov	r5, r0
 8000c02:	6823      	ldr	r3, [r4, #0]
 8000c04:	689b      	ldr	r3, [r3, #8]
 8000c06:	07db      	lsls	r3, r3, #31
 8000c08:	d5f2      	bpl.n	8000bf0 <ADC_ConversionStop_Disable+0xc>
 8000c0a:	f7ff fe21 	bl	8000850 <HAL_GetTick>
 8000c0e:	1b40      	subs	r0, r0, r5
 8000c10:	2802      	cmp	r0, #2
 8000c12:	d9f6      	bls.n	8000c02 <ADC_ConversionStop_Disable+0x1e>
 8000c14:	6823      	ldr	r3, [r4, #0]
 8000c16:	689b      	ldr	r3, [r3, #8]
 8000c18:	07da      	lsls	r2, r3, #31
 8000c1a:	d5f2      	bpl.n	8000c02 <ADC_ConversionStop_Disable+0x1e>
 8000c1c:	6aa3      	ldr	r3, [r4, #40]	@ 0x28
 8000c1e:	2001      	movs	r0, #1
 8000c20:	f043 0310 	orr.w	r3, r3, #16
 8000c24:	62a3      	str	r3, [r4, #40]	@ 0x28
 8000c26:	6ae3      	ldr	r3, [r4, #44]	@ 0x2c
 8000c28:	f043 0301 	orr.w	r3, r3, #1
 8000c2c:	62e3      	str	r3, [r4, #44]	@ 0x2c
 8000c2e:	e7e0      	b.n	8000bf2 <ADC_ConversionStop_Disable+0xe>

08000c30 <HAL_ADC_Init>:
 8000c30:	b5f8      	push	{r3, r4, r5, r6, r7, lr}
 8000c32:	4604      	mov	r4, r0
 8000c34:	2800      	cmp	r0, #0
 8000c36:	d06d      	beq.n	8000d14 <HAL_ADC_Init+0xe4>
 8000c38:	6a83      	ldr	r3, [r0, #40]	@ 0x28
 8000c3a:	b923      	cbnz	r3, 8000c46 <HAL_ADC_Init+0x16>
 8000c3c:	62c3      	str	r3, [r0, #44]	@ 0x2c
 8000c3e:	f880 3024 	strb.w	r3, [r0, #36]	@ 0x24
 8000c42:	f7ff fcdb 	bl	80005fc <HAL_ADC_MspInit>
 8000c46:	4620      	mov	r0, r4
 8000c48:	f7ff ffcc 	bl	8000be4 <ADC_ConversionStop_Disable>
 8000c4c:	6aa3      	ldr	r3, [r4, #40]	@ 0x28
 8000c4e:	f013 0310 	ands.w	r3, r3, #16
 8000c52:	d161      	bne.n	8000d18 <HAL_ADC_Init+0xe8>
 8000c54:	2800      	cmp	r0, #0
 8000c56:	d15f      	bne.n	8000d18 <HAL_ADC_Init+0xe8>
 8000c58:	6aa2      	ldr	r2, [r4, #40]	@ 0x28
 8000c5a:	6861      	ldr	r1, [r4, #4]
 8000c5c:	f422 5288 	bic.w	r2, r2, #4352	@ 0x1100
 8000c60:	f022 0202 	bic.w	r2, r2, #2
 8000c64:	f042 0202 	orr.w	r2, r2, #2
 8000c68:	69e5      	ldr	r5, [r4, #28]
 8000c6a:	68a6      	ldr	r6, [r4, #8]
 8000c6c:	62a2      	str	r2, [r4, #40]	@ 0x28
 8000c6e:	7b22      	ldrb	r2, [r4, #12]
 8000c70:	4329      	orrs	r1, r5
 8000c72:	f5b6 7f80 	cmp.w	r6, #256	@ 0x100
 8000c76:	ea41 0142 	orr.w	r1, r1, r2, lsl #1
 8000c7a:	d036      	beq.n	8000cea <HAL_ADC_Init+0xba>
 8000c7c:	1e77      	subs	r7, r6, #1
 8000c7e:	427d      	negs	r5, r7
 8000c80:	417d      	adcs	r5, r7
 8000c82:	022d      	lsls	r5, r5, #8
 8000c84:	7d27      	ldrb	r7, [r4, #20]
 8000c86:	2f01      	cmp	r7, #1
 8000c88:	d106      	bne.n	8000c98 <HAL_ADC_Init+0x68>
 8000c8a:	bb82      	cbnz	r2, 8000cee <HAL_ADC_Init+0xbe>
 8000c8c:	69a2      	ldr	r2, [r4, #24]
 8000c8e:	3a01      	subs	r2, #1
 8000c90:	ea45 3242 	orr.w	r2, r5, r2, lsl #13
 8000c94:	f442 6500 	orr.w	r5, r2, #2048	@ 0x800
 8000c98:	6822      	ldr	r2, [r4, #0]
 8000c9a:	f5b6 7f80 	cmp.w	r6, #256	@ 0x100
 8000c9e:	6857      	ldr	r7, [r2, #4]
 8000ca0:	f427 4769 	bic.w	r7, r7, #59648	@ 0xe900
 8000ca4:	ea45 0507 	orr.w	r5, r5, r7
 8000ca8:	6055      	str	r5, [r2, #4]
 8000caa:	6897      	ldr	r7, [r2, #8]
 8000cac:	4d1d      	ldr	r5, [pc, #116]	@ (8000d24 <HAL_ADC_Init+0xf4>)
 8000cae:	ea05 0507 	and.w	r5, r5, r7
 8000cb2:	ea45 0501 	orr.w	r5, r5, r1
 8000cb6:	6095      	str	r5, [r2, #8]
 8000cb8:	d001      	beq.n	8000cbe <HAL_ADC_Init+0x8e>
 8000cba:	2e01      	cmp	r6, #1
 8000cbc:	d102      	bne.n	8000cc4 <HAL_ADC_Init+0x94>
 8000cbe:	6923      	ldr	r3, [r4, #16]
 8000cc0:	3b01      	subs	r3, #1
 8000cc2:	051b      	lsls	r3, r3, #20
 8000cc4:	6ad5      	ldr	r5, [r2, #44]	@ 0x2c
 8000cc6:	f425 0570 	bic.w	r5, r5, #15728640	@ 0xf00000
 8000cca:	432b      	orrs	r3, r5
 8000ccc:	62d3      	str	r3, [r2, #44]	@ 0x2c
 8000cce:	6892      	ldr	r2, [r2, #8]
 8000cd0:	4b15      	ldr	r3, [pc, #84]	@ (8000d28 <HAL_ADC_Init+0xf8>)
 8000cd2:	4013      	ands	r3, r2
 8000cd4:	4299      	cmp	r1, r3
 8000cd6:	d113      	bne.n	8000d00 <HAL_ADC_Init+0xd0>
 8000cd8:	2300      	movs	r3, #0
 8000cda:	62e3      	str	r3, [r4, #44]	@ 0x2c
 8000cdc:	6aa3      	ldr	r3, [r4, #40]	@ 0x28
 8000cde:	f023 0303 	bic.w	r3, r3, #3
 8000ce2:	f043 0301 	orr.w	r3, r3, #1
 8000ce6:	62a3      	str	r3, [r4, #40]	@ 0x28
 8000ce8:	bdf8      	pop	{r3, r4, r5, r6, r7, pc}
 8000cea:	4635      	mov	r5, r6
 8000cec:	e7ca      	b.n	8000c84 <HAL_ADC_Init+0x54>
 8000cee:	6aa2      	ldr	r2, [r4, #40]	@ 0x28
 8000cf0:	f042 0220 	orr.w	r2, r2, #32
 8000cf4:	62a2      	str	r2, [r4, #40]	@ 0x28
 8000cf6:	6ae2      	ldr	r2, [r4, #44]	@ 0x2c
 8000cf8:	f042 0201 	orr.w	r2, r2, #1
 8000cfc:	62e2      	str	r2, [r4, #44]	@ 0x2c
 8000cfe:	e7cb      	b.n	8000c98 <HAL_ADC_Init+0x68>
 8000d00:	6aa3      	ldr	r3, [r4, #40]	@ 0x28
 8000d02:	f023 0312 	bic.w	r3, r3, #18
 8000d06:	f043 0310 	orr.w	r3, r3, #16
 8000d0a:	62a3      	str	r3, [r4, #40]	@ 0x28
 8000d0c:	6ae3      	ldr	r3, [r4, #44]	@ 0x2c
 8000d0e:	f043 0301 	orr.w	r3, r3, #1
 8000d12:	62e3      	str	r3, [r4, #44]	@ 0x2c
 8000d14:	2001      	movs	r0, #1
 8000d16:	e7e7      	b.n	8000ce8 <HAL_ADC_Init+0xb8>
 8000d18:	6aa3      	ldr	r3, [r4, #40]	@ 0x28
 8000d1a:	f043 0310 	orr.w	r3, r3, #16
 8000d1e:	62a3      	str	r3, [r4, #40]	@ 0x28
 8000d20:	e7f8      	b.n	8000d14 <HAL_ADC_Init+0xe4>
 8000d22:	bf00      	nop
 8000d24:	ffe1f7fd 	.word	0xffe1f7fd
 8000d28:	ff1f0efe 	.word	0xff1f0efe

08000d2c <HAL_ADC_Stop>:
 8000d2c:	b510      	push	{r4, lr}
 8000d2e:	f890 3024 	ldrb.w	r3, [r0, #36]	@ 0x24
 8000d32:	4604      	mov	r4, r0
 8000d34:	2b01      	cmp	r3, #1
 8000d36:	d011      	beq.n	8000d5c <HAL_ADC_Stop+0x30>
 8000d38:	2301      	movs	r3, #1
 8000d3a:	f880 3024 	strb.w	r3, [r0, #36]	@ 0x24
 8000d3e:	f7ff ff51 	bl	8000be4 <ADC_ConversionStop_Disable>
 8000d42:	b938      	cbnz	r0, 8000d54 <HAL_ADC_Stop+0x28>
 8000d44:	6aa3      	ldr	r3, [r4, #40]	@ 0x28
 8000d46:	f423 5388 	bic.w	r3, r3, #4352	@ 0x1100
 8000d4a:	f023 0301 	bic.w	r3, r3, #1
 8000d4e:	f043 0301 	orr.w	r3, r3, #1
 8000d52:	62a3      	str	r3, [r4, #40]	@ 0x28
 8000d54:	2300      	movs	r3, #0
 8000d56:	f884 3024 	strb.w	r3, [r4, #36]	@ 0x24
 8000d5a:	bd10      	pop	{r4, pc}
 8000d5c:	2002      	movs	r0, #2
 8000d5e:	e7fc      	b.n	8000d5a <HAL_ADC_Stop+0x2e>

08000d60 <HAL_ADCEx_Calibration_Start>:
 8000d60:	2300      	movs	r3, #0
 8000d62:	b573      	push	{r0, r1, r4, r5, r6, lr}
 8000d64:	9301      	str	r3, [sp, #4]
 8000d66:	f890 3024 	ldrb.w	r3, [r0, #36]	@ 0x24
 8000d6a:	4604      	mov	r4, r0
 8000d6c:	2b01      	cmp	r3, #1
 8000d6e:	d062      	beq.n	8000e36 <HAL_ADCEx_Calibration_Start+0xd6>
 8000d70:	2301      	movs	r3, #1
 8000d72:	f880 3024 	strb.w	r3, [r0, #36]	@ 0x24
 8000d76:	f7ff ff35 	bl	8000be4 <ADC_ConversionStop_Disable>
 8000d7a:	4620      	mov	r0, r4
 8000d7c:	f7ff fe94 	bl	8000aa8 <ADC_Enable>
 8000d80:	4605      	mov	r5, r0
 8000d82:	2800      	cmp	r0, #0
 8000d84:	d12f      	bne.n	8000de6 <HAL_ADCEx_Calibration_Start+0x86>
 8000d86:	6aa3      	ldr	r3, [r4, #40]	@ 0x28
 8000d88:	2002      	movs	r0, #2
 8000d8a:	f423 5388 	bic.w	r3, r3, #4352	@ 0x1100
 8000d8e:	f023 0302 	bic.w	r3, r3, #2
 8000d92:	f043 0302 	orr.w	r3, r3, #2
 8000d96:	62a3      	str	r3, [r4, #40]	@ 0x28
 8000d98:	4b28      	ldr	r3, [pc, #160]	@ (8000e3c <HAL_ADCEx_Calibration_Start+0xdc>)
 8000d9a:	681e      	ldr	r6, [r3, #0]
 8000d9c:	f000 fdc8 	bl	8001930 <HAL_RCCEx_GetPeriphCLKFreq>
 8000da0:	fbb6 f6f0 	udiv	r6, r6, r0
 8000da4:	0076      	lsls	r6, r6, #1
 8000da6:	9601      	str	r6, [sp, #4]
 8000da8:	9b01      	ldr	r3, [sp, #4]
 8000daa:	bb03      	cbnz	r3, 8000dee <HAL_ADCEx_Calibration_Start+0x8e>
 8000dac:	6822      	ldr	r2, [r4, #0]
 8000dae:	6893      	ldr	r3, [r2, #8]
 8000db0:	f043 0308 	orr.w	r3, r3, #8
 8000db4:	6093      	str	r3, [r2, #8]
 8000db6:	f7ff fd4b 	bl	8000850 <HAL_GetTick>
 8000dba:	4606      	mov	r6, r0
 8000dbc:	6823      	ldr	r3, [r4, #0]
 8000dbe:	689a      	ldr	r2, [r3, #8]
 8000dc0:	0711      	lsls	r1, r2, #28
 8000dc2:	d418      	bmi.n	8000df6 <HAL_ADCEx_Calibration_Start+0x96>
 8000dc4:	689a      	ldr	r2, [r3, #8]
 8000dc6:	f042 0204 	orr.w	r2, r2, #4
 8000dca:	609a      	str	r2, [r3, #8]
 8000dcc:	f7ff fd40 	bl	8000850 <HAL_GetTick>
 8000dd0:	4606      	mov	r6, r0
 8000dd2:	6823      	ldr	r3, [r4, #0]
 8000dd4:	689b      	ldr	r3, [r3, #8]
 8000dd6:	075b      	lsls	r3, r3, #29
 8000dd8:	d423      	bmi.n	8000e22 <HAL_ADCEx_Calibration_Start+0xc2>
 8000dda:	6aa3      	ldr	r3, [r4, #40]	@ 0x28
 8000ddc:	f023 0303 	bic.w	r3, r3, #3
 8000de0:	f043 0301 	orr.w	r3, r3, #1
 8000de4:	62a3      	str	r3, [r4, #40]	@ 0x28
 8000de6:	2300      	movs	r3, #0
 8000de8:	f884 3024 	strb.w	r3, [r4, #36]	@ 0x24
 8000dec:	e016      	b.n	8000e1c <HAL_ADCEx_Calibration_Start+0xbc>
 8000dee:	9b01      	ldr	r3, [sp, #4]
 8000df0:	3b01      	subs	r3, #1
 8000df2:	9301      	str	r3, [sp, #4]
 8000df4:	e7d8      	b.n	8000da8 <HAL_ADCEx_Calibration_Start+0x48>
 8000df6:	f7ff fd2b 	bl	8000850 <HAL_GetTick>
 8000dfa:	1b80      	subs	r0, r0, r6
 8000dfc:	280a      	cmp	r0, #10
 8000dfe:	d9dd      	bls.n	8000dbc <HAL_ADCEx_Calibration_Start+0x5c>
 8000e00:	6823      	ldr	r3, [r4, #0]
 8000e02:	689b      	ldr	r3, [r3, #8]
 8000e04:	0718      	lsls	r0, r3, #28
 8000e06:	d5d9      	bpl.n	8000dbc <HAL_ADCEx_Calibration_Start+0x5c>
 8000e08:	6aa3      	ldr	r3, [r4, #40]	@ 0x28
 8000e0a:	2501      	movs	r5, #1
 8000e0c:	f023 0312 	bic.w	r3, r3, #18
 8000e10:	f043 0310 	orr.w	r3, r3, #16
 8000e14:	62a3      	str	r3, [r4, #40]	@ 0x28
 8000e16:	2300      	movs	r3, #0
 8000e18:	f884 3024 	strb.w	r3, [r4, #36]	@ 0x24
 8000e1c:	4628      	mov	r0, r5
 8000e1e:	b002      	add	sp, #8
 8000e20:	bd70      	pop	{r4, r5, r6, pc}
 8000e22:	f7ff fd15 	bl	8000850 <HAL_GetTick>
 8000e26:	1b80      	subs	r0, r0, r6
 8000e28:	280a      	cmp	r0, #10
 8000e2a:	d9d2      	bls.n	8000dd2 <HAL_ADCEx_Calibration_Start+0x72>
 8000e2c:	6823      	ldr	r3, [r4, #0]
 8000e2e:	689b      	ldr	r3, [r3, #8]
 8000e30:	075a      	lsls	r2, r3, #29
 8000e32:	d5ce      	bpl.n	8000dd2 <HAL_ADCEx_Calibration_Start+0x72>
 8000e34:	e7e8      	b.n	8000e08 <HAL_ADCEx_Calibration_Start+0xa8>
 8000e36:	2502      	movs	r5, #2
 8000e38:	e7f0      	b.n	8000e1c <HAL_ADCEx_Calibration_Start+0xbc>
 8000e3a:	bf00      	nop
 8000e3c:	20000000 	.word	0x20000000

08000e40 <HAL_CAN_Init>:
 8000e40:	b538      	push	{r3, r4, r5, lr}
 8000e42:	4604      	mov	r4, r0
 8000e44:	2800      	cmp	r0, #0
 8000e46:	d06e      	beq.n	8000f26 <HAL_CAN_Init+0xe6>
 8000e48:	f890 3020 	ldrb.w	r3, [r0, #32]
 8000e4c:	b90b      	cbnz	r3, 8000e52 <HAL_CAN_Init+0x12>
 8000e4e:	f7ff fc03 	bl	8000658 <HAL_CAN_MspInit>
 8000e52:	6822      	ldr	r2, [r4, #0]
 8000e54:	6813      	ldr	r3, [r2, #0]
 8000e56:	f043 0301 	orr.w	r3, r3, #1
 8000e5a:	6013      	str	r3, [r2, #0]
 8000e5c:	f7ff fcf8 	bl	8000850 <HAL_GetTick>
 8000e60:	4605      	mov	r5, r0
 8000e62:	6823      	ldr	r3, [r4, #0]
 8000e64:	685a      	ldr	r2, [r3, #4]
 8000e66:	07d1      	lsls	r1, r2, #31
 8000e68:	d551      	bpl.n	8000f0e <HAL_CAN_Init+0xce>
 8000e6a:	681a      	ldr	r2, [r3, #0]
 8000e6c:	f022 0202 	bic.w	r2, r2, #2
 8000e70:	601a      	str	r2, [r3, #0]
 8000e72:	f7ff fced 	bl	8000850 <HAL_GetTick>
 8000e76:	4605      	mov	r5, r0
 8000e78:	6823      	ldr	r3, [r4, #0]
 8000e7a:	685a      	ldr	r2, [r3, #4]
 8000e7c:	0792      	lsls	r2, r2, #30
 8000e7e:	d454      	bmi.n	8000f2a <HAL_CAN_Init+0xea>
 8000e80:	7e22      	ldrb	r2, [r4, #24]
 8000e82:	2000      	movs	r0, #0
 8000e84:	2a01      	cmp	r2, #1
 8000e86:	681a      	ldr	r2, [r3, #0]
 8000e88:	bf0c      	ite	eq
 8000e8a:	f042 0280 	orreq.w	r2, r2, #128	@ 0x80
 8000e8e:	f022 0280 	bicne.w	r2, r2, #128	@ 0x80
 8000e92:	601a      	str	r2, [r3, #0]
 8000e94:	7e62      	ldrb	r2, [r4, #25]
 8000e96:	2a01      	cmp	r2, #1
 8000e98:	681a      	ldr	r2, [r3, #0]
 8000e9a:	bf0c      	ite	eq
 8000e9c:	f042 0240 	orreq.w	r2, r2, #64	@ 0x40
 8000ea0:	f022 0240 	bicne.w	r2, r2, #64	@ 0x40
 8000ea4:	601a      	str	r2, [r3, #0]
 8000ea6:	7ea2      	ldrb	r2, [r4, #26]
 8000ea8:	2a01      	cmp	r2, #1
 8000eaa:	681a      	ldr	r2, [r3, #0]
 8000eac:	bf0c      	ite	eq
 8000eae:	f042 0220 	orreq.w	r2, r2, #32
 8000eb2:	f022 0220 	bicne.w	r2, r2, #32
 8000eb6:	601a      	str	r2, [r3, #0]
 8000eb8:	7ee2      	ldrb	r2, [r4, #27]
 8000eba:	2a01      	cmp	r2, #1
 8000ebc:	681a      	ldr	r2, [r3, #0]
 8000ebe:	bf0c      	ite	eq
 8000ec0:	f022 0210 	biceq.w	r2, r2, #16
 8000ec4:	f042 0210 	orrne.w	r2, r2, #16
 8000ec8:	601a      	str	r2, [r3, #0]
 8000eca:	7f22      	ldrb	r2, [r4, #28]
 8000ecc:	2a01      	cmp	r2, #1
 8000ece:	681a      	ldr	r2, [r3, #0]
 8000ed0:	bf0c      	ite	eq
 8000ed2:	f042 0208 	orreq.w	r2, r2, #8
 8000ed6:	f022 0208 	bicne.w	r2, r2, #8
 8000eda:	601a      	str	r2, [r3, #0]
 8000edc:	7f62      	ldrb	r2, [r4, #29]
 8000ede:	2a01      	cmp	r2, #1
 8000ee0:	681a      	ldr	r2, [r3, #0]
 8000ee2:	bf0c      	ite	eq
 8000ee4:	f042 0204 	orreq.w	r2, r2, #4
 8000ee8:	f022 0204 	bicne.w	r2, r2, #4
 8000eec:	601a      	str	r2, [r3, #0]
 8000eee:	e9d4 2102 	ldrd	r2, r1, [r4, #8]
 8000ef2:	430a      	orrs	r2, r1
 8000ef4:	6921      	ldr	r1, [r4, #16]
 8000ef6:	430a      	orrs	r2, r1
 8000ef8:	6961      	ldr	r1, [r4, #20]
 8000efa:	430a      	orrs	r2, r1
 8000efc:	6861      	ldr	r1, [r4, #4]
 8000efe:	3901      	subs	r1, #1
 8000f00:	430a      	orrs	r2, r1
 8000f02:	61da      	str	r2, [r3, #28]
 8000f04:	2301      	movs	r3, #1
 8000f06:	6260      	str	r0, [r4, #36]	@ 0x24
 8000f08:	f884 3020 	strb.w	r3, [r4, #32]
 8000f0c:	e00c      	b.n	8000f28 <HAL_CAN_Init+0xe8>
 8000f0e:	f7ff fc9f 	bl	8000850 <HAL_GetTick>
 8000f12:	1b40      	subs	r0, r0, r5
 8000f14:	280a      	cmp	r0, #10
 8000f16:	d9a4      	bls.n	8000e62 <HAL_CAN_Init+0x22>
 8000f18:	6a63      	ldr	r3, [r4, #36]	@ 0x24
 8000f1a:	f443 3300 	orr.w	r3, r3, #131072	@ 0x20000
 8000f1e:	6263      	str	r3, [r4, #36]	@ 0x24
 8000f20:	2305      	movs	r3, #5
 8000f22:	f884 3020 	strb.w	r3, [r4, #32]
 8000f26:	2001      	movs	r0, #1
 8000f28:	bd38      	pop	{r3, r4, r5, pc}
 8000f2a:	f7ff fc91 	bl	8000850 <HAL_GetTick>
 8000f2e:	1b40      	subs	r0, r0, r5
 8000f30:	280a      	cmp	r0, #10
 8000f32:	d9a1      	bls.n	8000e78 <HAL_CAN_Init+0x38>
 8000f34:	e7f0      	b.n	8000f18 <HAL_CAN_Init+0xd8>

08000f36 <HAL_CAN_ConfigFilter>:
 8000f36:	b570      	push	{r4, r5, r6, lr}
 8000f38:	f890 2020 	ldrb.w	r2, [r0, #32]
 8000f3c:	6803      	ldr	r3, [r0, #0]
 8000f3e:	3a01      	subs	r2, #1
 8000f40:	2a01      	cmp	r2, #1
 8000f42:	d862      	bhi.n	800100a <HAL_CAN_ConfigFilter+0xd4>
 8000f44:	2001      	movs	r0, #1
 8000f46:	f8d3 2200 	ldr.w	r2, [r3, #512]	@ 0x200
 8000f4a:	f042 0201 	orr.w	r2, r2, #1
 8000f4e:	f8c3 2200 	str.w	r2, [r3, #512]	@ 0x200
 8000f52:	694a      	ldr	r2, [r1, #20]
 8000f54:	f8d3 521c 	ldr.w	r5, [r3, #540]	@ 0x21c
 8000f58:	f002 041f 	and.w	r4, r2, #31
 8000f5c:	40a0      	lsls	r0, r4
 8000f5e:	ea25 0500 	bic.w	r5, r5, r0
 8000f62:	f8c3 521c 	str.w	r5, [r3, #540]	@ 0x21c
 8000f66:	69cd      	ldr	r5, [r1, #28]
 8000f68:	43c4      	mvns	r4, r0
 8000f6a:	bb95      	cbnz	r5, 8000fd2 <HAL_CAN_ConfigFilter+0x9c>
 8000f6c:	f8d3 520c 	ldr.w	r5, [r3, #524]	@ 0x20c
 8000f70:	68ce      	ldr	r6, [r1, #12]
 8000f72:	4025      	ands	r5, r4
 8000f74:	f8c3 520c 	str.w	r5, [r3, #524]	@ 0x20c
 8000f78:	888d      	ldrh	r5, [r1, #4]
 8000f7a:	eb03 02c2 	add.w	r2, r3, r2, lsl #3
 8000f7e:	ea45 4506 	orr.w	r5, r5, r6, lsl #16
 8000f82:	f8c2 5240 	str.w	r5, [r2, #576]	@ 0x240
 8000f86:	688e      	ldr	r6, [r1, #8]
 8000f88:	880d      	ldrh	r5, [r1, #0]
 8000f8a:	ea45 4506 	orr.w	r5, r5, r6, lsl #16
 8000f8e:	f8c2 5244 	str.w	r5, [r2, #580]	@ 0x244
 8000f92:	698a      	ldr	r2, [r1, #24]
 8000f94:	bb7a      	cbnz	r2, 8000ff6 <HAL_CAN_ConfigFilter+0xc0>
 8000f96:	f8d3 2204 	ldr.w	r2, [r3, #516]	@ 0x204
 8000f9a:	4022      	ands	r2, r4
 8000f9c:	f8c3 2204 	str.w	r2, [r3, #516]	@ 0x204
 8000fa0:	690a      	ldr	r2, [r1, #16]
 8000fa2:	bb62      	cbnz	r2, 8000ffe <HAL_CAN_ConfigFilter+0xc8>
 8000fa4:	f8d3 2214 	ldr.w	r2, [r3, #532]	@ 0x214
 8000fa8:	4014      	ands	r4, r2
 8000faa:	f8c3 4214 	str.w	r4, [r3, #532]	@ 0x214
 8000fae:	6a0a      	ldr	r2, [r1, #32]
 8000fb0:	2a01      	cmp	r2, #1
 8000fb2:	bf04      	itt	eq
 8000fb4:	f8d3 221c 	ldreq.w	r2, [r3, #540]	@ 0x21c
 8000fb8:	4302      	orreq	r2, r0
 8000fba:	f04f 0000 	mov.w	r0, #0
 8000fbe:	bf08      	it	eq
 8000fc0:	f8c3 221c 	streq.w	r2, [r3, #540]	@ 0x21c
 8000fc4:	f8d3 2200 	ldr.w	r2, [r3, #512]	@ 0x200
 8000fc8:	f022 0201 	bic.w	r2, r2, #1
 8000fcc:	f8c3 2200 	str.w	r2, [r3, #512]	@ 0x200
 8000fd0:	bd70      	pop	{r4, r5, r6, pc}
 8000fd2:	2d01      	cmp	r5, #1
 8000fd4:	d1dd      	bne.n	8000f92 <HAL_CAN_ConfigFilter+0x5c>
 8000fd6:	f8d3 520c 	ldr.w	r5, [r3, #524]	@ 0x20c
 8000fda:	680e      	ldr	r6, [r1, #0]
 8000fdc:	4305      	orrs	r5, r0
 8000fde:	f8c3 520c 	str.w	r5, [r3, #524]	@ 0x20c
 8000fe2:	888d      	ldrh	r5, [r1, #4]
 8000fe4:	eb03 02c2 	add.w	r2, r3, r2, lsl #3
 8000fe8:	ea45 4506 	orr.w	r5, r5, r6, lsl #16
 8000fec:	f8c2 5240 	str.w	r5, [r2, #576]	@ 0x240
 8000ff0:	688e      	ldr	r6, [r1, #8]
 8000ff2:	898d      	ldrh	r5, [r1, #12]
 8000ff4:	e7c9      	b.n	8000f8a <HAL_CAN_ConfigFilter+0x54>
 8000ff6:	f8d3 2204 	ldr.w	r2, [r3, #516]	@ 0x204
 8000ffa:	4302      	orrs	r2, r0
 8000ffc:	e7ce      	b.n	8000f9c <HAL_CAN_ConfigFilter+0x66>
 8000ffe:	f8d3 2214 	ldr.w	r2, [r3, #532]	@ 0x214
 8001002:	4302      	orrs	r2, r0
 8001004:	f8c3 2214 	str.w	r2, [r3, #532]	@ 0x214
 8001008:	e7d1      	b.n	8000fae <HAL_CAN_ConfigFilter+0x78>
 800100a:	6a43      	ldr	r3, [r0, #36]	@ 0x24
 800100c:	f443 2380 	orr.w	r3, r3, #262144	@ 0x40000
 8001010:	6243      	str	r3, [r0, #36]	@ 0x24
 8001012:	2001      	movs	r0, #1
 8001014:	e7dc      	b.n	8000fd0 <HAL_CAN_ConfigFilter+0x9a>

08001016 <HAL_CAN_Start>:
 8001016:	b538      	push	{r3, r4, r5, lr}
 8001018:	f890 3020 	ldrb.w	r3, [r0, #32]
 800101c:	4604      	mov	r4, r0
 800101e:	2b01      	cmp	r3, #1
 8001020:	d11f      	bne.n	8001062 <HAL_CAN_Start+0x4c>
 8001022:	2302      	movs	r3, #2
 8001024:	6802      	ldr	r2, [r0, #0]
 8001026:	f880 3020 	strb.w	r3, [r0, #32]
 800102a:	6813      	ldr	r3, [r2, #0]
 800102c:	f023 0301 	bic.w	r3, r3, #1
 8001030:	6013      	str	r3, [r2, #0]
 8001032:	f7ff fc0d 	bl	8000850 <HAL_GetTick>
 8001036:	4605      	mov	r5, r0
 8001038:	6823      	ldr	r3, [r4, #0]
 800103a:	6858      	ldr	r0, [r3, #4]
 800103c:	f010 0001 	ands.w	r0, r0, #1
 8001040:	d101      	bne.n	8001046 <HAL_CAN_Start+0x30>
 8001042:	6260      	str	r0, [r4, #36]	@ 0x24
 8001044:	bd38      	pop	{r3, r4, r5, pc}
 8001046:	f7ff fc03 	bl	8000850 <HAL_GetTick>
 800104a:	1b40      	subs	r0, r0, r5
 800104c:	280a      	cmp	r0, #10
 800104e:	d9f3      	bls.n	8001038 <HAL_CAN_Start+0x22>
 8001050:	6a63      	ldr	r3, [r4, #36]	@ 0x24
 8001052:	f443 3300 	orr.w	r3, r3, #131072	@ 0x20000
 8001056:	6263      	str	r3, [r4, #36]	@ 0x24
 8001058:	2305      	movs	r3, #5
 800105a:	f884 3020 	strb.w	r3, [r4, #32]
 800105e:	2001      	movs	r0, #1
 8001060:	e7f0      	b.n	8001044 <HAL_CAN_Start+0x2e>
 8001062:	6a43      	ldr	r3, [r0, #36]	@ 0x24
 8001064:	f443 2300 	orr.w	r3, r3, #524288	@ 0x80000
 8001068:	6243      	str	r3, [r0, #36]	@ 0x24
 800106a:	e7f8      	b.n	800105e <HAL_CAN_Start+0x48>

0800106c <HAL_CAN_AddTxMessage>:
 800106c:	b5f0      	push	{r4, r5, r6, r7, lr}
 800106e:	f890 5020 	ldrb.w	r5, [r0, #32]
 8001072:	6804      	ldr	r4, [r0, #0]
 8001074:	3d01      	subs	r5, #1
 8001076:	2d01      	cmp	r5, #1
 8001078:	68a6      	ldr	r6, [r4, #8]
 800107a:	d83c      	bhi.n	80010f6 <HAL_CAN_AddTxMessage+0x8a>
 800107c:	f016 5fe0 	tst.w	r6, #469762048	@ 0x1c000000
 8001080:	d033      	beq.n	80010ea <HAL_CAN_AddTxMessage+0x7e>
 8001082:	2501      	movs	r5, #1
 8001084:	f3c6 6001 	ubfx	r0, r6, #24, #2
 8001088:	4085      	lsls	r5, r0
 800108a:	601d      	str	r5, [r3, #0]
 800108c:	e9d1 5702 	ldrd	r5, r7, [r1, #8]
 8001090:	f100 0318 	add.w	r3, r0, #24
 8001094:	bb15      	cbnz	r5, 80010dc <HAL_CAN_AddTxMessage+0x70>
 8001096:	680d      	ldr	r5, [r1, #0]
 8001098:	011b      	lsls	r3, r3, #4
 800109a:	ea47 5745 	orr.w	r7, r7, r5, lsl #21
 800109e:	50e7      	str	r7, [r4, r3]
 80010a0:	eb04 1300 	add.w	r3, r4, r0, lsl #4
 80010a4:	0105      	lsls	r5, r0, #4
 80010a6:	2000      	movs	r0, #0
 80010a8:	690e      	ldr	r6, [r1, #16]
 80010aa:	442c      	add	r4, r5
 80010ac:	f8c3 6184 	str.w	r6, [r3, #388]	@ 0x184
 80010b0:	7d09      	ldrb	r1, [r1, #20]
 80010b2:	2901      	cmp	r1, #1
 80010b4:	bf02      	ittt	eq
 80010b6:	f8d3 1184 	ldreq.w	r1, [r3, #388]	@ 0x184
 80010ba:	f441 7180 	orreq.w	r1, r1, #256	@ 0x100
 80010be:	f8c3 1184 	streq.w	r1, [r3, #388]	@ 0x184
 80010c2:	6851      	ldr	r1, [r2, #4]
 80010c4:	f8c4 118c 	str.w	r1, [r4, #396]	@ 0x18c
 80010c8:	6812      	ldr	r2, [r2, #0]
 80010ca:	f8c4 2188 	str.w	r2, [r4, #392]	@ 0x188
 80010ce:	f8d3 2180 	ldr.w	r2, [r3, #384]	@ 0x180
 80010d2:	f042 0201 	orr.w	r2, r2, #1
 80010d6:	f8c3 2180 	str.w	r2, [r3, #384]	@ 0x180
 80010da:	bdf0      	pop	{r4, r5, r6, r7, pc}
 80010dc:	684e      	ldr	r6, [r1, #4]
 80010de:	433d      	orrs	r5, r7
 80010e0:	ea45 05c6 	orr.w	r5, r5, r6, lsl #3
 80010e4:	011b      	lsls	r3, r3, #4
 80010e6:	50e5      	str	r5, [r4, r3]
 80010e8:	e7da      	b.n	80010a0 <HAL_CAN_AddTxMessage+0x34>
 80010ea:	6a43      	ldr	r3, [r0, #36]	@ 0x24
 80010ec:	f443 1300 	orr.w	r3, r3, #2097152	@ 0x200000
 80010f0:	6243      	str	r3, [r0, #36]	@ 0x24
 80010f2:	2001      	movs	r0, #1
 80010f4:	e7f1      	b.n	80010da <HAL_CAN_AddTxMessage+0x6e>
 80010f6:	6a43      	ldr	r3, [r0, #36]	@ 0x24
 80010f8:	f443 2380 	orr.w	r3, r3, #262144	@ 0x40000
 80010fc:	e7f8      	b.n	80010f0 <HAL_CAN_AddTxMessage+0x84>
	...

08001100 <HAL_NVIC_SetPriorityGrouping>:
 8001100:	4907      	ldr	r1, [pc, #28]	@ (8001120 <HAL_NVIC_SetPriorityGrouping+0x20>)
 8001102:	0203      	lsls	r3, r0, #8
 8001104:	68ca      	ldr	r2, [r1, #12]
 8001106:	f403 63e0 	and.w	r3, r3, #1792	@ 0x700
 800110a:	f422 62e0 	bic.w	r2, r2, #1792	@ 0x700
 800110e:	0412      	lsls	r2, r2, #16
 8001110:	0c12      	lsrs	r2, r2, #16
 8001112:	4313      	orrs	r3, r2
 8001114:	f043 63bf 	orr.w	r3, r3, #100139008	@ 0x5f80000
 8001118:	f443 3300 	orr.w	r3, r3, #131072	@ 0x20000
 800111c:	60cb      	str	r3, [r1, #12]
 800111e:	4770      	bx	lr
 8001120:	e000ed00 	.word	0xe000ed00

08001124 <HAL_NVIC_SetPriority>:
 8001124:	4b15      	ldr	r3, [pc, #84]	@ (800117c <HAL_NVIC_SetPriority+0x58>)
 8001126:	b530      	push	{r4, r5, lr}
 8001128:	68dc      	ldr	r4, [r3, #12]
 800112a:	f3c4 2402 	ubfx	r4, r4, #8, #3
 800112e:	f1c4 0307 	rsb	r3, r4, #7
 8001132:	1d25      	adds	r5, r4, #4
 8001134:	2b04      	cmp	r3, #4
 8001136:	bf28      	it	cs
 8001138:	2304      	movcs	r3, #4
 800113a:	2d06      	cmp	r5, #6
 800113c:	f04f 35ff 	mov.w	r5, #4294967295	@ 0xffffffff
 8001140:	bf94      	ite	ls
 8001142:	2400      	movls	r4, #0
 8001144:	3c03      	subhi	r4, #3
 8001146:	fa05 f303 	lsl.w	r3, r5, r3
 800114a:	ea21 0303 	bic.w	r3, r1, r3
 800114e:	40a5      	lsls	r5, r4
 8001150:	ea22 0205 	bic.w	r2, r2, r5
 8001154:	40a3      	lsls	r3, r4
 8001156:	2800      	cmp	r0, #0
 8001158:	ea43 0302 	orr.w	r3, r3, r2
 800115c:	bfac      	ite	ge
 800115e:	f100 4060 	addge.w	r0, r0, #3758096384	@ 0xe0000000
 8001162:	4a07      	ldrlt	r2, [pc, #28]	@ (8001180 <HAL_NVIC_SetPriority+0x5c>)
 8001164:	ea4f 1303 	mov.w	r3, r3, lsl #4
 8001168:	b2db      	uxtb	r3, r3
 800116a:	bfab      	itete	ge
 800116c:	f500 4061 	addge.w	r0, r0, #57600	@ 0xe100
 8001170:	f000 000f 	andlt.w	r0, r0, #15
 8001174:	f880 3300 	strbge.w	r3, [r0, #768]	@ 0x300
 8001178:	5413      	strblt	r3, [r2, r0]
 800117a:	bd30      	pop	{r4, r5, pc}
 800117c:	e000ed00 	.word	0xe000ed00
 8001180:	e000ed14 	.word	0xe000ed14

08001184 <HAL_SYSTICK_Config>:
 8001184:	3801      	subs	r0, #1
 8001186:	f1b0 7f80 	cmp.w	r0, #16777216	@ 0x1000000
 800118a:	d20b      	bcs.n	80011a4 <HAL_SYSTICK_Config+0x20>
 800118c:	f04f 23e0 	mov.w	r3, #3758153728	@ 0xe000e000
 8001190:	21f0      	movs	r1, #240	@ 0xf0
 8001192:	4a05      	ldr	r2, [pc, #20]	@ (80011a8 <HAL_SYSTICK_Config+0x24>)
 8001194:	6158      	str	r0, [r3, #20]
 8001196:	f882 1023 	strb.w	r1, [r2, #35]	@ 0x23
 800119a:	2000      	movs	r0, #0
 800119c:	2207      	movs	r2, #7
 800119e:	6198      	str	r0, [r3, #24]
 80011a0:	611a      	str	r2, [r3, #16]
 80011a2:	4770      	bx	lr
 80011a4:	2001      	movs	r0, #1
 80011a6:	4770      	bx	lr
 80011a8:	e000ed00 	.word	0xe000ed00

080011ac <HAL_GPIO_Init>:
 80011ac:	e92d 4ff7 	stmdb	sp!, {r0, r1, r2, r4, r5, r6, r7, r8, r9, sl, fp, lr}
 80011b0:	2400      	movs	r4, #0
 80011b2:	f04f 0e0f 	mov.w	lr, #15
 80011b6:	4626      	mov	r6, r4
 80011b8:	f8df c184 	ldr.w	ip, [pc, #388]	@ 8001340 <HAL_GPIO_Init+0x194>
 80011bc:	4b61      	ldr	r3, [pc, #388]	@ (8001344 <HAL_GPIO_Init+0x198>)
 80011be:	f100 0804 	add.w	r8, r0, #4
 80011c2:	680a      	ldr	r2, [r1, #0]
 80011c4:	fa32 f506 	lsrs.w	r5, r2, r6
 80011c8:	d102      	bne.n	80011d0 <HAL_GPIO_Init+0x24>
 80011ca:	b003      	add	sp, #12
 80011cc:	e8bd 8ff0 	ldmia.w	sp!, {r4, r5, r6, r7, r8, r9, sl, fp, pc}
 80011d0:	2501      	movs	r5, #1
 80011d2:	fa05 f706 	lsl.w	r7, r5, r6
 80011d6:	ea02 0507 	and.w	r5, r2, r7
 80011da:	ea37 0202 	bics.w	r2, r7, r2
 80011de:	d176      	bne.n	80012ce <HAL_GPIO_Init+0x122>
 80011e0:	684a      	ldr	r2, [r1, #4]
 80011e2:	2a03      	cmp	r2, #3
 80011e4:	d807      	bhi.n	80011f6 <HAL_GPIO_Init+0x4a>
 80011e6:	3a01      	subs	r2, #1
 80011e8:	2a02      	cmp	r2, #2
 80011ea:	f200 8083 	bhi.w	80012f4 <HAL_GPIO_Init+0x148>
 80011ee:	e8df f002 	tbb	[pc, r2]
 80011f2:	9691      	.short	0x9691
 80011f4:	9c          	.byte	0x9c
 80011f5:	00          	.byte	0x00
 80011f6:	2a12      	cmp	r2, #18
 80011f8:	f000 8094 	beq.w	8001324 <HAL_GPIO_Init+0x178>
 80011fc:	d869      	bhi.n	80012d2 <HAL_GPIO_Init+0x126>
 80011fe:	2a11      	cmp	r2, #17
 8001200:	f000 808a 	beq.w	8001318 <HAL_GPIO_Init+0x16c>
 8001204:	2dff      	cmp	r5, #255	@ 0xff
 8001206:	bf94      	ite	ls
 8001208:	4681      	movls	r9, r0
 800120a:	46c1      	movhi	r9, r8
 800120c:	ea4f 0286 	mov.w	r2, r6, lsl #2
 8001210:	f8d9 7000 	ldr.w	r7, [r9]
 8001214:	bf88      	it	hi
 8001216:	3a20      	subhi	r2, #32
 8001218:	fa0e fa02 	lsl.w	sl, lr, r2
 800121c:	ea27 070a 	bic.w	r7, r7, sl
 8001220:	fa04 f202 	lsl.w	r2, r4, r2
 8001224:	4317      	orrs	r7, r2
 8001226:	f8c9 7000 	str.w	r7, [r9]
 800122a:	f8d1 9004 	ldr.w	r9, [r1, #4]
 800122e:	f019 5f80 	tst.w	r9, #268435456	@ 0x10000000
 8001232:	d04c      	beq.n	80012ce <HAL_GPIO_Init+0x122>
 8001234:	f8dc 2018 	ldr.w	r2, [ip, #24]
 8001238:	f026 0703 	bic.w	r7, r6, #3
 800123c:	f042 0201 	orr.w	r2, r2, #1
 8001240:	f8cc 2018 	str.w	r2, [ip, #24]
 8001244:	f8dc 2018 	ldr.w	r2, [ip, #24]
 8001248:	f107 4780 	add.w	r7, r7, #1073741824	@ 0x40000000
 800124c:	f002 0201 	and.w	r2, r2, #1
 8001250:	9201      	str	r2, [sp, #4]
 8001252:	f507 3780 	add.w	r7, r7, #65536	@ 0x10000
 8001256:	f006 0a03 	and.w	sl, r6, #3
 800125a:	9a01      	ldr	r2, [sp, #4]
 800125c:	ea4f 0a8a 	mov.w	sl, sl, lsl #2
 8001260:	68ba      	ldr	r2, [r7, #8]
 8001262:	fa0e fb0a 	lsl.w	fp, lr, sl
 8001266:	ea22 0b0b 	bic.w	fp, r2, fp
 800126a:	4a37      	ldr	r2, [pc, #220]	@ (8001348 <HAL_GPIO_Init+0x19c>)
 800126c:	4290      	cmp	r0, r2
 800126e:	d060      	beq.n	8001332 <HAL_GPIO_Init+0x186>
 8001270:	f502 6280 	add.w	r2, r2, #1024	@ 0x400
 8001274:	4290      	cmp	r0, r2
 8001276:	d05e      	beq.n	8001336 <HAL_GPIO_Init+0x18a>
 8001278:	f502 6280 	add.w	r2, r2, #1024	@ 0x400
 800127c:	4290      	cmp	r0, r2
 800127e:	d05c      	beq.n	800133a <HAL_GPIO_Init+0x18e>
 8001280:	f502 6280 	add.w	r2, r2, #1024	@ 0x400
 8001284:	4290      	cmp	r0, r2
 8001286:	bf14      	ite	ne
 8001288:	2204      	movne	r2, #4
 800128a:	2203      	moveq	r2, #3
 800128c:	fa02 f20a 	lsl.w	r2, r2, sl
 8001290:	ea42 020b 	orr.w	r2, r2, fp
 8001294:	60ba      	str	r2, [r7, #8]
 8001296:	689a      	ldr	r2, [r3, #8]
 8001298:	f419 1f80 	tst.w	r9, #1048576	@ 0x100000
 800129c:	bf14      	ite	ne
 800129e:	432a      	orrne	r2, r5
 80012a0:	43aa      	biceq	r2, r5
 80012a2:	609a      	str	r2, [r3, #8]
 80012a4:	68da      	ldr	r2, [r3, #12]
 80012a6:	f419 1f00 	tst.w	r9, #2097152	@ 0x200000
 80012aa:	bf14      	ite	ne
 80012ac:	432a      	orrne	r2, r5
 80012ae:	43aa      	biceq	r2, r5
 80012b0:	60da      	str	r2, [r3, #12]
 80012b2:	685a      	ldr	r2, [r3, #4]
 80012b4:	f419 3f00 	tst.w	r9, #131072	@ 0x20000
 80012b8:	bf14      	ite	ne
 80012ba:	432a      	orrne	r2, r5
 80012bc:	43aa      	biceq	r2, r5
 80012be:	605a      	str	r2, [r3, #4]
 80012c0:	681a      	ldr	r2, [r3, #0]
 80012c2:	f419 3f80 	tst.w	r9, #65536	@ 0x10000
 80012c6:	bf14      	ite	ne
 80012c8:	432a      	orrne	r2, r5
 80012ca:	43aa      	biceq	r2, r5
 80012cc:	601a      	str	r2, [r3, #0]
 80012ce:	3601      	adds	r6, #1
 80012d0:	e777      	b.n	80011c2 <HAL_GPIO_Init+0x16>
 80012d2:	f8df 9078 	ldr.w	r9, [pc, #120]	@ 800134c <HAL_GPIO_Init+0x1a0>
 80012d6:	454a      	cmp	r2, r9
 80012d8:	d00c      	beq.n	80012f4 <HAL_GPIO_Init+0x148>
 80012da:	d814      	bhi.n	8001306 <HAL_GPIO_Init+0x15a>
 80012dc:	f5a9 1980 	sub.w	r9, r9, #1048576	@ 0x100000
 80012e0:	454a      	cmp	r2, r9
 80012e2:	d007      	beq.n	80012f4 <HAL_GPIO_Init+0x148>
 80012e4:	f509 2970 	add.w	r9, r9, #983040	@ 0xf0000
 80012e8:	454a      	cmp	r2, r9
 80012ea:	d003      	beq.n	80012f4 <HAL_GPIO_Init+0x148>
 80012ec:	f5a9 1980 	sub.w	r9, r9, #1048576	@ 0x100000
 80012f0:	454a      	cmp	r2, r9
 80012f2:	d187      	bne.n	8001204 <HAL_GPIO_Init+0x58>
 80012f4:	688a      	ldr	r2, [r1, #8]
 80012f6:	b1d2      	cbz	r2, 800132e <HAL_GPIO_Init+0x182>
 80012f8:	2a01      	cmp	r2, #1
 80012fa:	f04f 0408 	mov.w	r4, #8
 80012fe:	bf0c      	ite	eq
 8001300:	6107      	streq	r7, [r0, #16]
 8001302:	6147      	strne	r7, [r0, #20]
 8001304:	e77e      	b.n	8001204 <HAL_GPIO_Init+0x58>
 8001306:	f8df 9048 	ldr.w	r9, [pc, #72]	@ 8001350 <HAL_GPIO_Init+0x1a4>
 800130a:	454a      	cmp	r2, r9
 800130c:	d0f2      	beq.n	80012f4 <HAL_GPIO_Init+0x148>
 800130e:	f509 3980 	add.w	r9, r9, #65536	@ 0x10000
 8001312:	e7ed      	b.n	80012f0 <HAL_GPIO_Init+0x144>
 8001314:	68cc      	ldr	r4, [r1, #12]
 8001316:	e775      	b.n	8001204 <HAL_GPIO_Init+0x58>
 8001318:	68cc      	ldr	r4, [r1, #12]
 800131a:	3404      	adds	r4, #4
 800131c:	e772      	b.n	8001204 <HAL_GPIO_Init+0x58>
 800131e:	68cc      	ldr	r4, [r1, #12]
 8001320:	3408      	adds	r4, #8
 8001322:	e76f      	b.n	8001204 <HAL_GPIO_Init+0x58>
 8001324:	68cc      	ldr	r4, [r1, #12]
 8001326:	340c      	adds	r4, #12
 8001328:	e76c      	b.n	8001204 <HAL_GPIO_Init+0x58>
 800132a:	2400      	movs	r4, #0
 800132c:	e76a      	b.n	8001204 <HAL_GPIO_Init+0x58>
 800132e:	2404      	movs	r4, #4
 8001330:	e768      	b.n	8001204 <HAL_GPIO_Init+0x58>
 8001332:	2200      	movs	r2, #0
 8001334:	e7aa      	b.n	800128c <HAL_GPIO_Init+0xe0>
 8001336:	2201      	movs	r2, #1
 8001338:	e7a8      	b.n	800128c <HAL_GPIO_Init+0xe0>
 800133a:	2202      	movs	r2, #2
 800133c:	e7a6      	b.n	800128c <HAL_GPIO_Init+0xe0>
 800133e:	bf00      	nop
 8001340:	40021000 	.word	0x40021000
 8001344:	40010400 	.word	0x40010400
 8001348:	40010800 	.word	0x40010800
 800134c:	10220000 	.word	0x10220000
 8001350:	10310000 	.word	0x10310000

08001354 <HAL_GPIO_WritePin>:
 8001354:	b10a      	cbz	r2, 800135a <HAL_GPIO_WritePin+0x6>
 8001356:	6101      	str	r1, [r0, #16]
 8001358:	4770      	bx	lr
 800135a:	0409      	lsls	r1, r1, #16
 800135c:	e7fb      	b.n	8001356 <HAL_GPIO_WritePin+0x2>
	...

08001360 <HAL_RCC_OscConfig>:
 8001360:	e92d 41f3 	stmdb	sp!, {r0, r1, r4, r5, r6, r7, r8, lr}
 8001364:	4605      	mov	r5, r0
 8001366:	b338      	cbz	r0, 80013b8 <HAL_RCC_OscConfig+0x58>
 8001368:	6803      	ldr	r3, [r0, #0]
 800136a:	07db      	lsls	r3, r3, #31
 800136c:	d410      	bmi.n	8001390 <HAL_RCC_OscConfig+0x30>
 800136e:	682b      	ldr	r3, [r5, #0]
 8001370:	079f      	lsls	r7, r3, #30
 8001372:	d45e      	bmi.n	8001432 <HAL_RCC_OscConfig+0xd2>
 8001374:	682b      	ldr	r3, [r5, #0]
 8001376:	0719      	lsls	r1, r3, #28
 8001378:	f100 8095 	bmi.w	80014a6 <HAL_RCC_OscConfig+0x146>
 800137c:	682b      	ldr	r3, [r5, #0]
 800137e:	075a      	lsls	r2, r3, #29
 8001380:	f100 80c1 	bmi.w	8001506 <HAL_RCC_OscConfig+0x1a6>
 8001384:	69eb      	ldr	r3, [r5, #28]
 8001386:	2b00      	cmp	r3, #0
 8001388:	f040 812c 	bne.w	80015e4 <HAL_RCC_OscConfig+0x284>
 800138c:	2000      	movs	r0, #0
 800138e:	e029      	b.n	80013e4 <HAL_RCC_OscConfig+0x84>
 8001390:	4c90      	ldr	r4, [pc, #576]	@ (80015d4 <HAL_RCC_OscConfig+0x274>)
 8001392:	6863      	ldr	r3, [r4, #4]
 8001394:	f003 030c 	and.w	r3, r3, #12
 8001398:	2b04      	cmp	r3, #4
 800139a:	d007      	beq.n	80013ac <HAL_RCC_OscConfig+0x4c>
 800139c:	6863      	ldr	r3, [r4, #4]
 800139e:	f003 030c 	and.w	r3, r3, #12
 80013a2:	2b08      	cmp	r3, #8
 80013a4:	d10a      	bne.n	80013bc <HAL_RCC_OscConfig+0x5c>
 80013a6:	6863      	ldr	r3, [r4, #4]
 80013a8:	03de      	lsls	r6, r3, #15
 80013aa:	d507      	bpl.n	80013bc <HAL_RCC_OscConfig+0x5c>
 80013ac:	6823      	ldr	r3, [r4, #0]
 80013ae:	039c      	lsls	r4, r3, #14
 80013b0:	d5dd      	bpl.n	800136e <HAL_RCC_OscConfig+0xe>
 80013b2:	686b      	ldr	r3, [r5, #4]
 80013b4:	2b00      	cmp	r3, #0
 80013b6:	d1da      	bne.n	800136e <HAL_RCC_OscConfig+0xe>
 80013b8:	2001      	movs	r0, #1
 80013ba:	e013      	b.n	80013e4 <HAL_RCC_OscConfig+0x84>
 80013bc:	686b      	ldr	r3, [r5, #4]
 80013be:	f5b3 3f80 	cmp.w	r3, #65536	@ 0x10000
 80013c2:	d112      	bne.n	80013ea <HAL_RCC_OscConfig+0x8a>
 80013c4:	6823      	ldr	r3, [r4, #0]
 80013c6:	f443 3380 	orr.w	r3, r3, #65536	@ 0x10000
 80013ca:	6023      	str	r3, [r4, #0]
 80013cc:	f7ff fa40 	bl	8000850 <HAL_GetTick>
 80013d0:	4606      	mov	r6, r0
 80013d2:	6823      	ldr	r3, [r4, #0]
 80013d4:	0398      	lsls	r0, r3, #14
 80013d6:	d4ca      	bmi.n	800136e <HAL_RCC_OscConfig+0xe>
 80013d8:	f7ff fa3a 	bl	8000850 <HAL_GetTick>
 80013dc:	1b80      	subs	r0, r0, r6
 80013de:	2864      	cmp	r0, #100	@ 0x64
 80013e0:	d9f7      	bls.n	80013d2 <HAL_RCC_OscConfig+0x72>
 80013e2:	2003      	movs	r0, #3
 80013e4:	b002      	add	sp, #8
 80013e6:	e8bd 81f0 	ldmia.w	sp!, {r4, r5, r6, r7, r8, pc}
 80013ea:	b99b      	cbnz	r3, 8001414 <HAL_RCC_OscConfig+0xb4>
 80013ec:	6823      	ldr	r3, [r4, #0]
 80013ee:	f423 3380 	bic.w	r3, r3, #65536	@ 0x10000
 80013f2:	6023      	str	r3, [r4, #0]
 80013f4:	6823      	ldr	r3, [r4, #0]
 80013f6:	f423 2380 	bic.w	r3, r3, #262144	@ 0x40000
 80013fa:	6023      	str	r3, [r4, #0]
 80013fc:	f7ff fa28 	bl	8000850 <HAL_GetTick>
 8001400:	4606      	mov	r6, r0
 8001402:	6823      	ldr	r3, [r4, #0]
 8001404:	0399      	lsls	r1, r3, #14
 8001406:	d5b2      	bpl.n	800136e <HAL_RCC_OscConfig+0xe>
 8001408:	f7ff fa22 	bl	8000850 <HAL_GetTick>
 800140c:	1b80      	subs	r0, r0, r6
 800140e:	2864      	cmp	r0, #100	@ 0x64
 8001410:	d9f7      	bls.n	8001402 <HAL_RCC_OscConfig+0xa2>
 8001412:	e7e6      	b.n	80013e2 <HAL_RCC_OscConfig+0x82>
 8001414:	f5b3 2fa0 	cmp.w	r3, #327680	@ 0x50000
 8001418:	6823      	ldr	r3, [r4, #0]
 800141a:	d103      	bne.n	8001424 <HAL_RCC_OscConfig+0xc4>
 800141c:	f443 2380 	orr.w	r3, r3, #262144	@ 0x40000
 8001420:	6023      	str	r3, [r4, #0]
 8001422:	e7cf      	b.n	80013c4 <HAL_RCC_OscConfig+0x64>
 8001424:	f423 3380 	bic.w	r3, r3, #65536	@ 0x10000
 8001428:	6023      	str	r3, [r4, #0]
 800142a:	6823      	ldr	r3, [r4, #0]
 800142c:	f423 2380 	bic.w	r3, r3, #262144	@ 0x40000
 8001430:	e7cb      	b.n	80013ca <HAL_RCC_OscConfig+0x6a>
 8001432:	4c68      	ldr	r4, [pc, #416]	@ (80015d4 <HAL_RCC_OscConfig+0x274>)
 8001434:	6863      	ldr	r3, [r4, #4]
 8001436:	f013 0f0c 	tst.w	r3, #12
 800143a:	d007      	beq.n	800144c <HAL_RCC_OscConfig+0xec>
 800143c:	6863      	ldr	r3, [r4, #4]
 800143e:	f003 030c 	and.w	r3, r3, #12
 8001442:	2b08      	cmp	r3, #8
 8001444:	d110      	bne.n	8001468 <HAL_RCC_OscConfig+0x108>
 8001446:	6863      	ldr	r3, [r4, #4]
 8001448:	03da      	lsls	r2, r3, #15
 800144a:	d40d      	bmi.n	8001468 <HAL_RCC_OscConfig+0x108>
 800144c:	6823      	ldr	r3, [r4, #0]
 800144e:	079b      	lsls	r3, r3, #30
 8001450:	d502      	bpl.n	8001458 <HAL_RCC_OscConfig+0xf8>
 8001452:	692b      	ldr	r3, [r5, #16]
 8001454:	2b01      	cmp	r3, #1
 8001456:	d1af      	bne.n	80013b8 <HAL_RCC_OscConfig+0x58>
 8001458:	6823      	ldr	r3, [r4, #0]
 800145a:	696a      	ldr	r2, [r5, #20]
 800145c:	f023 03f8 	bic.w	r3, r3, #248	@ 0xf8
 8001460:	ea43 03c2 	orr.w	r3, r3, r2, lsl #3
 8001464:	6023      	str	r3, [r4, #0]
 8001466:	e785      	b.n	8001374 <HAL_RCC_OscConfig+0x14>
 8001468:	692a      	ldr	r2, [r5, #16]
 800146a:	4b5b      	ldr	r3, [pc, #364]	@ (80015d8 <HAL_RCC_OscConfig+0x278>)
 800146c:	b16a      	cbz	r2, 800148a <HAL_RCC_OscConfig+0x12a>
 800146e:	2201      	movs	r2, #1
 8001470:	601a      	str	r2, [r3, #0]
 8001472:	f7ff f9ed 	bl	8000850 <HAL_GetTick>
 8001476:	4606      	mov	r6, r0
 8001478:	6823      	ldr	r3, [r4, #0]
 800147a:	079f      	lsls	r7, r3, #30
 800147c:	d4ec      	bmi.n	8001458 <HAL_RCC_OscConfig+0xf8>
 800147e:	f7ff f9e7 	bl	8000850 <HAL_GetTick>
 8001482:	1b80      	subs	r0, r0, r6
 8001484:	2802      	cmp	r0, #2
 8001486:	d9f7      	bls.n	8001478 <HAL_RCC_OscConfig+0x118>
 8001488:	e7ab      	b.n	80013e2 <HAL_RCC_OscConfig+0x82>
 800148a:	601a      	str	r2, [r3, #0]
 800148c:	f7ff f9e0 	bl	8000850 <HAL_GetTick>
 8001490:	4606      	mov	r6, r0
 8001492:	6823      	ldr	r3, [r4, #0]
 8001494:	0798      	lsls	r0, r3, #30
 8001496:	f57f af6d 	bpl.w	8001374 <HAL_RCC_OscConfig+0x14>
 800149a:	f7ff f9d9 	bl	8000850 <HAL_GetTick>
 800149e:	1b80      	subs	r0, r0, r6
 80014a0:	2802      	cmp	r0, #2
 80014a2:	d9f6      	bls.n	8001492 <HAL_RCC_OscConfig+0x132>
 80014a4:	e79d      	b.n	80013e2 <HAL_RCC_OscConfig+0x82>
 80014a6:	69aa      	ldr	r2, [r5, #24]
 80014a8:	4e4a      	ldr	r6, [pc, #296]	@ (80015d4 <HAL_RCC_OscConfig+0x274>)
 80014aa:	4b4b      	ldr	r3, [pc, #300]	@ (80015d8 <HAL_RCC_OscConfig+0x278>)
 80014ac:	b1e2      	cbz	r2, 80014e8 <HAL_RCC_OscConfig+0x188>
 80014ae:	2201      	movs	r2, #1
 80014b0:	f8c3 2480 	str.w	r2, [r3, #1152]	@ 0x480
 80014b4:	f7ff f9cc 	bl	8000850 <HAL_GetTick>
 80014b8:	4604      	mov	r4, r0
 80014ba:	6a73      	ldr	r3, [r6, #36]	@ 0x24
 80014bc:	079b      	lsls	r3, r3, #30
 80014be:	d50d      	bpl.n	80014dc <HAL_RCC_OscConfig+0x17c>
 80014c0:	f44f 52fa 	mov.w	r2, #8000	@ 0x1f40
 80014c4:	4b45      	ldr	r3, [pc, #276]	@ (80015dc <HAL_RCC_OscConfig+0x27c>)
 80014c6:	681b      	ldr	r3, [r3, #0]
 80014c8:	fbb3 f3f2 	udiv	r3, r3, r2
 80014cc:	9301      	str	r3, [sp, #4]
 80014ce:	bf00      	nop
 80014d0:	9b01      	ldr	r3, [sp, #4]
 80014d2:	1e5a      	subs	r2, r3, #1
 80014d4:	9201      	str	r2, [sp, #4]
 80014d6:	2b00      	cmp	r3, #0
 80014d8:	d1f9      	bne.n	80014ce <HAL_RCC_OscConfig+0x16e>
 80014da:	e74f      	b.n	800137c <HAL_RCC_OscConfig+0x1c>
 80014dc:	f7ff f9b8 	bl	8000850 <HAL_GetTick>
 80014e0:	1b00      	subs	r0, r0, r4
 80014e2:	2802      	cmp	r0, #2
 80014e4:	d9e9      	bls.n	80014ba <HAL_RCC_OscConfig+0x15a>
 80014e6:	e77c      	b.n	80013e2 <HAL_RCC_OscConfig+0x82>
 80014e8:	f8c3 2480 	str.w	r2, [r3, #1152]	@ 0x480
 80014ec:	f7ff f9b0 	bl	8000850 <HAL_GetTick>
 80014f0:	4604      	mov	r4, r0
 80014f2:	6a73      	ldr	r3, [r6, #36]	@ 0x24
 80014f4:	079f      	lsls	r7, r3, #30
 80014f6:	f57f af41 	bpl.w	800137c <HAL_RCC_OscConfig+0x1c>
 80014fa:	f7ff f9a9 	bl	8000850 <HAL_GetTick>
 80014fe:	1b00      	subs	r0, r0, r4
 8001500:	2802      	cmp	r0, #2
 8001502:	d9f6      	bls.n	80014f2 <HAL_RCC_OscConfig+0x192>
 8001504:	e76d      	b.n	80013e2 <HAL_RCC_OscConfig+0x82>
 8001506:	4c33      	ldr	r4, [pc, #204]	@ (80015d4 <HAL_RCC_OscConfig+0x274>)
 8001508:	69e3      	ldr	r3, [r4, #28]
 800150a:	00d8      	lsls	r0, r3, #3
 800150c:	d424      	bmi.n	8001558 <HAL_RCC_OscConfig+0x1f8>
 800150e:	2701      	movs	r7, #1
 8001510:	69e3      	ldr	r3, [r4, #28]
 8001512:	f043 5380 	orr.w	r3, r3, #268435456	@ 0x10000000
 8001516:	61e3      	str	r3, [r4, #28]
 8001518:	69e3      	ldr	r3, [r4, #28]
 800151a:	f003 5380 	and.w	r3, r3, #268435456	@ 0x10000000
 800151e:	9300      	str	r3, [sp, #0]
 8001520:	9b00      	ldr	r3, [sp, #0]
 8001522:	4e2f      	ldr	r6, [pc, #188]	@ (80015e0 <HAL_RCC_OscConfig+0x280>)
 8001524:	6833      	ldr	r3, [r6, #0]
 8001526:	05d9      	lsls	r1, r3, #23
 8001528:	d518      	bpl.n	800155c <HAL_RCC_OscConfig+0x1fc>
 800152a:	68eb      	ldr	r3, [r5, #12]
 800152c:	2b01      	cmp	r3, #1
 800152e:	d126      	bne.n	800157e <HAL_RCC_OscConfig+0x21e>
 8001530:	6a23      	ldr	r3, [r4, #32]
 8001532:	f043 0301 	orr.w	r3, r3, #1
 8001536:	6223      	str	r3, [r4, #32]
 8001538:	f7ff f98a 	bl	8000850 <HAL_GetTick>
 800153c:	f241 3888 	movw	r8, #5000	@ 0x1388
 8001540:	4606      	mov	r6, r0
 8001542:	6a23      	ldr	r3, [r4, #32]
 8001544:	079b      	lsls	r3, r3, #30
 8001546:	d53f      	bpl.n	80015c8 <HAL_RCC_OscConfig+0x268>
 8001548:	2f00      	cmp	r7, #0
 800154a:	f43f af1b 	beq.w	8001384 <HAL_RCC_OscConfig+0x24>
 800154e:	69e3      	ldr	r3, [r4, #28]
 8001550:	f023 5380 	bic.w	r3, r3, #268435456	@ 0x10000000
 8001554:	61e3      	str	r3, [r4, #28]
 8001556:	e715      	b.n	8001384 <HAL_RCC_OscConfig+0x24>
 8001558:	2700      	movs	r7, #0
 800155a:	e7e2      	b.n	8001522 <HAL_RCC_OscConfig+0x1c2>
 800155c:	6833      	ldr	r3, [r6, #0]
 800155e:	f443 7380 	orr.w	r3, r3, #256	@ 0x100
 8001562:	6033      	str	r3, [r6, #0]
 8001564:	f7ff f974 	bl	8000850 <HAL_GetTick>
 8001568:	4680      	mov	r8, r0
 800156a:	6833      	ldr	r3, [r6, #0]
 800156c:	05da      	lsls	r2, r3, #23
 800156e:	d4dc      	bmi.n	800152a <HAL_RCC_OscConfig+0x1ca>
 8001570:	f7ff f96e 	bl	8000850 <HAL_GetTick>
 8001574:	eba0 0008 	sub.w	r0, r0, r8
 8001578:	2864      	cmp	r0, #100	@ 0x64
 800157a:	d9f6      	bls.n	800156a <HAL_RCC_OscConfig+0x20a>
 800157c:	e731      	b.n	80013e2 <HAL_RCC_OscConfig+0x82>
 800157e:	b9ab      	cbnz	r3, 80015ac <HAL_RCC_OscConfig+0x24c>
 8001580:	6a23      	ldr	r3, [r4, #32]
 8001582:	f241 3888 	movw	r8, #5000	@ 0x1388
 8001586:	f023 0301 	bic.w	r3, r3, #1
 800158a:	6223      	str	r3, [r4, #32]
 800158c:	6a23      	ldr	r3, [r4, #32]
 800158e:	f023 0304 	bic.w	r3, r3, #4
 8001592:	6223      	str	r3, [r4, #32]
 8001594:	f7ff f95c 	bl	8000850 <HAL_GetTick>
 8001598:	4606      	mov	r6, r0
 800159a:	6a23      	ldr	r3, [r4, #32]
 800159c:	0798      	lsls	r0, r3, #30
 800159e:	d5d3      	bpl.n	8001548 <HAL_RCC_OscConfig+0x1e8>
 80015a0:	f7ff f956 	bl	8000850 <HAL_GetTick>
 80015a4:	1b80      	subs	r0, r0, r6
 80015a6:	4540      	cmp	r0, r8
 80015a8:	d9f7      	bls.n	800159a <HAL_RCC_OscConfig+0x23a>
 80015aa:	e71a      	b.n	80013e2 <HAL_RCC_OscConfig+0x82>
 80015ac:	2b05      	cmp	r3, #5
 80015ae:	6a23      	ldr	r3, [r4, #32]
 80015b0:	d103      	bne.n	80015ba <HAL_RCC_OscConfig+0x25a>
 80015b2:	f043 0304 	orr.w	r3, r3, #4
 80015b6:	6223      	str	r3, [r4, #32]
 80015b8:	e7ba      	b.n	8001530 <HAL_RCC_OscConfig+0x1d0>
 80015ba:	f023 0301 	bic.w	r3, r3, #1
 80015be:	6223      	str	r3, [r4, #32]
 80015c0:	6a23      	ldr	r3, [r4, #32]
 80015c2:	f023 0304 	bic.w	r3, r3, #4
 80015c6:	e7b6      	b.n	8001536 <HAL_RCC_OscConfig+0x1d6>
 80015c8:	f7ff f942 	bl	8000850 <HAL_GetTick>
 80015cc:	1b80      	subs	r0, r0, r6
 80015ce:	4540      	cmp	r0, r8
 80015d0:	d9b7      	bls.n	8001542 <HAL_RCC_OscConfig+0x1e2>
 80015d2:	e706      	b.n	80013e2 <HAL_RCC_OscConfig+0x82>
 80015d4:	40021000 	.word	0x40021000
 80015d8:	42420000 	.word	0x42420000
 80015dc:	20000000 	.word	0x20000000
 80015e0:	40007000 	.word	0x40007000
 80015e4:	4c2a      	ldr	r4, [pc, #168]	@ (8001690 <HAL_RCC_OscConfig+0x330>)
 80015e6:	6862      	ldr	r2, [r4, #4]
 80015e8:	f002 020c 	and.w	r2, r2, #12
 80015ec:	2a08      	cmp	r2, #8
 80015ee:	d03e      	beq.n	800166e <HAL_RCC_OscConfig+0x30e>
 80015f0:	2200      	movs	r2, #0
 80015f2:	2b02      	cmp	r3, #2
 80015f4:	4b27      	ldr	r3, [pc, #156]	@ (8001694 <HAL_RCC_OscConfig+0x334>)
 80015f6:	661a      	str	r2, [r3, #96]	@ 0x60
 80015f8:	d12c      	bne.n	8001654 <HAL_RCC_OscConfig+0x2f4>
 80015fa:	f7ff f929 	bl	8000850 <HAL_GetTick>
 80015fe:	4606      	mov	r6, r0
 8001600:	6823      	ldr	r3, [r4, #0]
 8001602:	0199      	lsls	r1, r3, #6
 8001604:	d420      	bmi.n	8001648 <HAL_RCC_OscConfig+0x2e8>
 8001606:	6a2b      	ldr	r3, [r5, #32]
 8001608:	f5b3 3f80 	cmp.w	r3, #65536	@ 0x10000
 800160c:	d105      	bne.n	800161a <HAL_RCC_OscConfig+0x2ba>
 800160e:	6862      	ldr	r2, [r4, #4]
 8001610:	68a9      	ldr	r1, [r5, #8]
 8001612:	f422 3200 	bic.w	r2, r2, #131072	@ 0x20000
 8001616:	430a      	orrs	r2, r1
 8001618:	6062      	str	r2, [r4, #4]
 800161a:	6a69      	ldr	r1, [r5, #36]	@ 0x24
 800161c:	6862      	ldr	r2, [r4, #4]
 800161e:	430b      	orrs	r3, r1
 8001620:	f422 1274 	bic.w	r2, r2, #3997696	@ 0x3d0000
 8001624:	4313      	orrs	r3, r2
 8001626:	2201      	movs	r2, #1
 8001628:	6063      	str	r3, [r4, #4]
 800162a:	4b1a      	ldr	r3, [pc, #104]	@ (8001694 <HAL_RCC_OscConfig+0x334>)
 800162c:	661a      	str	r2, [r3, #96]	@ 0x60
 800162e:	f7ff f90f 	bl	8000850 <HAL_GetTick>
 8001632:	4605      	mov	r5, r0
 8001634:	6823      	ldr	r3, [r4, #0]
 8001636:	019a      	lsls	r2, r3, #6
 8001638:	f53f aea8 	bmi.w	800138c <HAL_RCC_OscConfig+0x2c>
 800163c:	f7ff f908 	bl	8000850 <HAL_GetTick>
 8001640:	1b40      	subs	r0, r0, r5
 8001642:	2802      	cmp	r0, #2
 8001644:	d9f6      	bls.n	8001634 <HAL_RCC_OscConfig+0x2d4>
 8001646:	e6cc      	b.n	80013e2 <HAL_RCC_OscConfig+0x82>
 8001648:	f7ff f902 	bl	8000850 <HAL_GetTick>
 800164c:	1b80      	subs	r0, r0, r6
 800164e:	2802      	cmp	r0, #2
 8001650:	d9d6      	bls.n	8001600 <HAL_RCC_OscConfig+0x2a0>
 8001652:	e6c6      	b.n	80013e2 <HAL_RCC_OscConfig+0x82>
 8001654:	f7ff f8fc 	bl	8000850 <HAL_GetTick>
 8001658:	4605      	mov	r5, r0
 800165a:	6823      	ldr	r3, [r4, #0]
 800165c:	019b      	lsls	r3, r3, #6
 800165e:	f57f ae95 	bpl.w	800138c <HAL_RCC_OscConfig+0x2c>
 8001662:	f7ff f8f5 	bl	8000850 <HAL_GetTick>
 8001666:	1b40      	subs	r0, r0, r5
 8001668:	2802      	cmp	r0, #2
 800166a:	d9f6      	bls.n	800165a <HAL_RCC_OscConfig+0x2fa>
 800166c:	e6b9      	b.n	80013e2 <HAL_RCC_OscConfig+0x82>
 800166e:	2b01      	cmp	r3, #1
 8001670:	f43f aea2 	beq.w	80013b8 <HAL_RCC_OscConfig+0x58>
 8001674:	6860      	ldr	r0, [r4, #4]
 8001676:	6a2b      	ldr	r3, [r5, #32]
 8001678:	f400 3280 	and.w	r2, r0, #65536	@ 0x10000
 800167c:	429a      	cmp	r2, r3
 800167e:	f47f ae9b 	bne.w	80013b8 <HAL_RCC_OscConfig+0x58>
 8001682:	6a6b      	ldr	r3, [r5, #36]	@ 0x24
 8001684:	f400 1070 	and.w	r0, r0, #3932160	@ 0x3c0000
 8001688:	1ac0      	subs	r0, r0, r3
 800168a:	bf18      	it	ne
 800168c:	2001      	movne	r0, #1
 800168e:	e6a9      	b.n	80013e4 <HAL_RCC_OscConfig+0x84>
 8001690:	40021000 	.word	0x40021000
 8001694:	42420000 	.word	0x42420000

08001698 <HAL_RCC_GetSysClockFreq>:
 8001698:	4a0d      	ldr	r2, [pc, #52]	@ (80016d0 <HAL_RCC_GetSysClockFreq+0x38>)
 800169a:	6853      	ldr	r3, [r2, #4]
 800169c:	f003 010c 	and.w	r1, r3, #12
 80016a0:	2908      	cmp	r1, #8
 80016a2:	d112      	bne.n	80016ca <HAL_RCC_GetSysClockFreq+0x32>
 80016a4:	480b      	ldr	r0, [pc, #44]	@ (80016d4 <HAL_RCC_GetSysClockFreq+0x3c>)
 80016a6:	f3c3 4183 	ubfx	r1, r3, #18, #4
 80016aa:	03db      	lsls	r3, r3, #15
 80016ac:	5c40      	ldrb	r0, [r0, r1]
 80016ae:	d509      	bpl.n	80016c4 <HAL_RCC_GetSysClockFreq+0x2c>
 80016b0:	6853      	ldr	r3, [r2, #4]
 80016b2:	4a09      	ldr	r2, [pc, #36]	@ (80016d8 <HAL_RCC_GetSysClockFreq+0x40>)
 80016b4:	f3c3 4340 	ubfx	r3, r3, #17, #1
 80016b8:	4350      	muls	r0, r2
 80016ba:	4a08      	ldr	r2, [pc, #32]	@ (80016dc <HAL_RCC_GetSysClockFreq+0x44>)
 80016bc:	5cd3      	ldrb	r3, [r2, r3]
 80016be:	fbb0 f0f3 	udiv	r0, r0, r3
 80016c2:	4770      	bx	lr
 80016c4:	4b06      	ldr	r3, [pc, #24]	@ (80016e0 <HAL_RCC_GetSysClockFreq+0x48>)
 80016c6:	4358      	muls	r0, r3
 80016c8:	4770      	bx	lr
 80016ca:	4803      	ldr	r0, [pc, #12]	@ (80016d8 <HAL_RCC_GetSysClockFreq+0x40>)
 80016cc:	4770      	bx	lr
 80016ce:	bf00      	nop
 80016d0:	40021000 	.word	0x40021000
 80016d4:	0800313d 	.word	0x0800313d
 80016d8:	007a1200 	.word	0x007a1200
 80016dc:	0800313b 	.word	0x0800313b
 80016e0:	003d0900 	.word	0x003d0900

080016e4 <HAL_RCC_ClockConfig>:
 80016e4:	e92d 41f0 	stmdb	sp!, {r4, r5, r6, r7, r8, lr}
 80016e8:	460d      	mov	r5, r1
 80016ea:	4604      	mov	r4, r0
 80016ec:	b910      	cbnz	r0, 80016f4 <HAL_RCC_ClockConfig+0x10>
 80016ee:	2001      	movs	r0, #1
 80016f0:	e8bd 81f0 	ldmia.w	sp!, {r4, r5, r6, r7, r8, pc}
 80016f4:	4a44      	ldr	r2, [pc, #272]	@ (8001808 <HAL_RCC_ClockConfig+0x124>)
 80016f6:	6813      	ldr	r3, [r2, #0]
 80016f8:	f003 0307 	and.w	r3, r3, #7
 80016fc:	428b      	cmp	r3, r1
 80016fe:	d328      	bcc.n	8001752 <HAL_RCC_ClockConfig+0x6e>
 8001700:	6821      	ldr	r1, [r4, #0]
 8001702:	078e      	lsls	r6, r1, #30
 8001704:	d430      	bmi.n	8001768 <HAL_RCC_ClockConfig+0x84>
 8001706:	07ca      	lsls	r2, r1, #31
 8001708:	d443      	bmi.n	8001792 <HAL_RCC_ClockConfig+0xae>
 800170a:	4a3f      	ldr	r2, [pc, #252]	@ (8001808 <HAL_RCC_ClockConfig+0x124>)
 800170c:	6813      	ldr	r3, [r2, #0]
 800170e:	f003 0307 	and.w	r3, r3, #7
 8001712:	42ab      	cmp	r3, r5
 8001714:	d865      	bhi.n	80017e2 <HAL_RCC_ClockConfig+0xfe>
 8001716:	6822      	ldr	r2, [r4, #0]
 8001718:	4d3c      	ldr	r5, [pc, #240]	@ (800180c <HAL_RCC_ClockConfig+0x128>)
 800171a:	f012 0f04 	tst.w	r2, #4
 800171e:	d16c      	bne.n	80017fa <HAL_RCC_ClockConfig+0x116>
 8001720:	0713      	lsls	r3, r2, #28
 8001722:	d506      	bpl.n	8001732 <HAL_RCC_ClockConfig+0x4e>
 8001724:	686b      	ldr	r3, [r5, #4]
 8001726:	6922      	ldr	r2, [r4, #16]
 8001728:	f423 5360 	bic.w	r3, r3, #14336	@ 0x3800
 800172c:	ea43 03c2 	orr.w	r3, r3, r2, lsl #3
 8001730:	606b      	str	r3, [r5, #4]
 8001732:	f7ff ffb1 	bl	8001698 <HAL_RCC_GetSysClockFreq>
 8001736:	686b      	ldr	r3, [r5, #4]
 8001738:	4a35      	ldr	r2, [pc, #212]	@ (8001810 <HAL_RCC_ClockConfig+0x12c>)
 800173a:	f3c3 1303 	ubfx	r3, r3, #4, #4
 800173e:	5cd3      	ldrb	r3, [r2, r3]
 8001740:	40d8      	lsrs	r0, r3
 8001742:	4b34      	ldr	r3, [pc, #208]	@ (8001814 <HAL_RCC_ClockConfig+0x130>)
 8001744:	6018      	str	r0, [r3, #0]
 8001746:	4b34      	ldr	r3, [pc, #208]	@ (8001818 <HAL_RCC_ClockConfig+0x134>)
 8001748:	6818      	ldr	r0, [r3, #0]
 800174a:	f7ff f83f 	bl	80007cc <HAL_InitTick>
 800174e:	2000      	movs	r0, #0
 8001750:	e7ce      	b.n	80016f0 <HAL_RCC_ClockConfig+0xc>
 8001752:	6813      	ldr	r3, [r2, #0]
 8001754:	f023 0307 	bic.w	r3, r3, #7
 8001758:	430b      	orrs	r3, r1
 800175a:	6013      	str	r3, [r2, #0]
 800175c:	6813      	ldr	r3, [r2, #0]
 800175e:	f003 0307 	and.w	r3, r3, #7
 8001762:	428b      	cmp	r3, r1
 8001764:	d1c3      	bne.n	80016ee <HAL_RCC_ClockConfig+0xa>
 8001766:	e7cb      	b.n	8001700 <HAL_RCC_ClockConfig+0x1c>
 8001768:	4b28      	ldr	r3, [pc, #160]	@ (800180c <HAL_RCC_ClockConfig+0x128>)
 800176a:	f011 0f04 	tst.w	r1, #4
 800176e:	bf1e      	ittt	ne
 8001770:	685a      	ldrne	r2, [r3, #4]
 8001772:	f442 62e0 	orrne.w	r2, r2, #1792	@ 0x700
 8001776:	605a      	strne	r2, [r3, #4]
 8001778:	0708      	lsls	r0, r1, #28
 800177a:	bf42      	ittt	mi
 800177c:	685a      	ldrmi	r2, [r3, #4]
 800177e:	f442 5260 	orrmi.w	r2, r2, #14336	@ 0x3800
 8001782:	605a      	strmi	r2, [r3, #4]
 8001784:	685a      	ldr	r2, [r3, #4]
 8001786:	68a0      	ldr	r0, [r4, #8]
 8001788:	f022 02f0 	bic.w	r2, r2, #240	@ 0xf0
 800178c:	4302      	orrs	r2, r0
 800178e:	605a      	str	r2, [r3, #4]
 8001790:	e7b9      	b.n	8001706 <HAL_RCC_ClockConfig+0x22>
 8001792:	6862      	ldr	r2, [r4, #4]
 8001794:	4e1d      	ldr	r6, [pc, #116]	@ (800180c <HAL_RCC_ClockConfig+0x128>)
 8001796:	2a01      	cmp	r2, #1
 8001798:	6833      	ldr	r3, [r6, #0]
 800179a:	d11a      	bne.n	80017d2 <HAL_RCC_ClockConfig+0xee>
 800179c:	f413 3f00 	tst.w	r3, #131072	@ 0x20000
 80017a0:	d0a5      	beq.n	80016ee <HAL_RCC_ClockConfig+0xa>
 80017a2:	6873      	ldr	r3, [r6, #4]
 80017a4:	f241 3888 	movw	r8, #5000	@ 0x1388
 80017a8:	f023 0303 	bic.w	r3, r3, #3
 80017ac:	4313      	orrs	r3, r2
 80017ae:	6073      	str	r3, [r6, #4]
 80017b0:	f7ff f84e 	bl	8000850 <HAL_GetTick>
 80017b4:	4607      	mov	r7, r0
 80017b6:	6873      	ldr	r3, [r6, #4]
 80017b8:	6862      	ldr	r2, [r4, #4]
 80017ba:	f003 030c 	and.w	r3, r3, #12
 80017be:	ebb3 0f82 	cmp.w	r3, r2, lsl #2
 80017c2:	d0a2      	beq.n	800170a <HAL_RCC_ClockConfig+0x26>
 80017c4:	f7ff f844 	bl	8000850 <HAL_GetTick>
 80017c8:	1bc0      	subs	r0, r0, r7
 80017ca:	4540      	cmp	r0, r8
 80017cc:	d9f3      	bls.n	80017b6 <HAL_RCC_ClockConfig+0xd2>
 80017ce:	2003      	movs	r0, #3
 80017d0:	e78e      	b.n	80016f0 <HAL_RCC_ClockConfig+0xc>
 80017d2:	2a02      	cmp	r2, #2
 80017d4:	d102      	bne.n	80017dc <HAL_RCC_ClockConfig+0xf8>
 80017d6:	f013 7f00 	tst.w	r3, #33554432	@ 0x2000000
 80017da:	e7e1      	b.n	80017a0 <HAL_RCC_ClockConfig+0xbc>
 80017dc:	f013 0f02 	tst.w	r3, #2
 80017e0:	e7de      	b.n	80017a0 <HAL_RCC_ClockConfig+0xbc>
 80017e2:	6813      	ldr	r3, [r2, #0]
 80017e4:	f023 0307 	bic.w	r3, r3, #7
 80017e8:	432b      	orrs	r3, r5
 80017ea:	6013      	str	r3, [r2, #0]
 80017ec:	6813      	ldr	r3, [r2, #0]
 80017ee:	f003 0307 	and.w	r3, r3, #7
 80017f2:	42ab      	cmp	r3, r5
 80017f4:	f47f af7b 	bne.w	80016ee <HAL_RCC_ClockConfig+0xa>
 80017f8:	e78d      	b.n	8001716 <HAL_RCC_ClockConfig+0x32>
 80017fa:	686b      	ldr	r3, [r5, #4]
 80017fc:	68e1      	ldr	r1, [r4, #12]
 80017fe:	f423 63e0 	bic.w	r3, r3, #1792	@ 0x700
 8001802:	430b      	orrs	r3, r1
 8001804:	606b      	str	r3, [r5, #4]
 8001806:	e78b      	b.n	8001720 <HAL_RCC_ClockConfig+0x3c>
 8001808:	40022000 	.word	0x40022000
 800180c:	40021000 	.word	0x40021000
 8001810:	0800312b 	.word	0x0800312b
 8001814:	20000000 	.word	0x20000000
 8001818:	20000008 	.word	0x20000008

0800181c <HAL_RCC_GetPCLK2Freq>:
 800181c:	4b04      	ldr	r3, [pc, #16]	@ (8001830 <HAL_RCC_GetPCLK2Freq+0x14>)
 800181e:	4a05      	ldr	r2, [pc, #20]	@ (8001834 <HAL_RCC_GetPCLK2Freq+0x18>)
 8001820:	685b      	ldr	r3, [r3, #4]
 8001822:	f3c3 23c2 	ubfx	r3, r3, #11, #3
 8001826:	5cd3      	ldrb	r3, [r2, r3]
 8001828:	4a03      	ldr	r2, [pc, #12]	@ (8001838 <HAL_RCC_GetPCLK2Freq+0x1c>)
 800182a:	6810      	ldr	r0, [r2, #0]
 800182c:	40d8      	lsrs	r0, r3
 800182e:	4770      	bx	lr
 8001830:	40021000 	.word	0x40021000
 8001834:	08003123 	.word	0x08003123
 8001838:	20000000 	.word	0x20000000

0800183c <HAL_RCCEx_PeriphCLKConfig>:
 800183c:	6803      	ldr	r3, [r0, #0]
 800183e:	e92d 41f3 	stmdb	sp!, {r0, r1, r4, r5, r6, r7, r8, lr}
 8001842:	4605      	mov	r5, r0
 8001844:	07d8      	lsls	r0, r3, #31
 8001846:	d521      	bpl.n	800188c <HAL_RCCEx_PeriphCLKConfig+0x50>
 8001848:	4c36      	ldr	r4, [pc, #216]	@ (8001924 <HAL_RCCEx_PeriphCLKConfig+0xe8>)
 800184a:	69e3      	ldr	r3, [r4, #28]
 800184c:	00d9      	lsls	r1, r3, #3
 800184e:	d42b      	bmi.n	80018a8 <HAL_RCCEx_PeriphCLKConfig+0x6c>
 8001850:	2601      	movs	r6, #1
 8001852:	69e3      	ldr	r3, [r4, #28]
 8001854:	f043 5380 	orr.w	r3, r3, #268435456	@ 0x10000000
 8001858:	61e3      	str	r3, [r4, #28]
 800185a:	69e3      	ldr	r3, [r4, #28]
 800185c:	f003 5380 	and.w	r3, r3, #268435456	@ 0x10000000
 8001860:	9301      	str	r3, [sp, #4]
 8001862:	9b01      	ldr	r3, [sp, #4]
 8001864:	4f30      	ldr	r7, [pc, #192]	@ (8001928 <HAL_RCCEx_PeriphCLKConfig+0xec>)
 8001866:	683b      	ldr	r3, [r7, #0]
 8001868:	05da      	lsls	r2, r3, #23
 800186a:	d51f      	bpl.n	80018ac <HAL_RCCEx_PeriphCLKConfig+0x70>
 800186c:	6a23      	ldr	r3, [r4, #32]
 800186e:	686a      	ldr	r2, [r5, #4]
 8001870:	f413 7340 	ands.w	r3, r3, #768	@ 0x300
 8001874:	d12e      	bne.n	80018d4 <HAL_RCCEx_PeriphCLKConfig+0x98>
 8001876:	6a23      	ldr	r3, [r4, #32]
 8001878:	686a      	ldr	r2, [r5, #4]
 800187a:	f423 7340 	bic.w	r3, r3, #768	@ 0x300
 800187e:	4313      	orrs	r3, r2
 8001880:	6223      	str	r3, [r4, #32]
 8001882:	b11e      	cbz	r6, 800188c <HAL_RCCEx_PeriphCLKConfig+0x50>
 8001884:	69e3      	ldr	r3, [r4, #28]
 8001886:	f023 5380 	bic.w	r3, r3, #268435456	@ 0x10000000
 800188a:	61e3      	str	r3, [r4, #28]
 800188c:	682a      	ldr	r2, [r5, #0]
 800188e:	0791      	lsls	r1, r2, #30
 8001890:	d506      	bpl.n	80018a0 <HAL_RCCEx_PeriphCLKConfig+0x64>
 8001892:	4924      	ldr	r1, [pc, #144]	@ (8001924 <HAL_RCCEx_PeriphCLKConfig+0xe8>)
 8001894:	68a8      	ldr	r0, [r5, #8]
 8001896:	684b      	ldr	r3, [r1, #4]
 8001898:	f423 4340 	bic.w	r3, r3, #49152	@ 0xc000
 800189c:	4303      	orrs	r3, r0
 800189e:	604b      	str	r3, [r1, #4]
 80018a0:	06d3      	lsls	r3, r2, #27
 80018a2:	d436      	bmi.n	8001912 <HAL_RCCEx_PeriphCLKConfig+0xd6>
 80018a4:	2000      	movs	r0, #0
 80018a6:	e012      	b.n	80018ce <HAL_RCCEx_PeriphCLKConfig+0x92>
 80018a8:	2600      	movs	r6, #0
 80018aa:	e7db      	b.n	8001864 <HAL_RCCEx_PeriphCLKConfig+0x28>
 80018ac:	683b      	ldr	r3, [r7, #0]
 80018ae:	f443 7380 	orr.w	r3, r3, #256	@ 0x100
 80018b2:	603b      	str	r3, [r7, #0]
 80018b4:	f7fe ffcc 	bl	8000850 <HAL_GetTick>
 80018b8:	4680      	mov	r8, r0
 80018ba:	683b      	ldr	r3, [r7, #0]
 80018bc:	05db      	lsls	r3, r3, #23
 80018be:	d4d5      	bmi.n	800186c <HAL_RCCEx_PeriphCLKConfig+0x30>
 80018c0:	f7fe ffc6 	bl	8000850 <HAL_GetTick>
 80018c4:	eba0 0008 	sub.w	r0, r0, r8
 80018c8:	2864      	cmp	r0, #100	@ 0x64
 80018ca:	d9f6      	bls.n	80018ba <HAL_RCCEx_PeriphCLKConfig+0x7e>
 80018cc:	2003      	movs	r0, #3
 80018ce:	b002      	add	sp, #8
 80018d0:	e8bd 81f0 	ldmia.w	sp!, {r4, r5, r6, r7, r8, pc}
 80018d4:	f402 7240 	and.w	r2, r2, #768	@ 0x300
 80018d8:	429a      	cmp	r2, r3
 80018da:	d0cc      	beq.n	8001876 <HAL_RCCEx_PeriphCLKConfig+0x3a>
 80018dc:	2001      	movs	r0, #1
 80018de:	4a13      	ldr	r2, [pc, #76]	@ (800192c <HAL_RCCEx_PeriphCLKConfig+0xf0>)
 80018e0:	6a23      	ldr	r3, [r4, #32]
 80018e2:	f8c2 0440 	str.w	r0, [r2, #1088]	@ 0x440
 80018e6:	2000      	movs	r0, #0
 80018e8:	f423 7140 	bic.w	r1, r3, #768	@ 0x300
 80018ec:	07df      	lsls	r7, r3, #31
 80018ee:	f8c2 0440 	str.w	r0, [r2, #1088]	@ 0x440
 80018f2:	6221      	str	r1, [r4, #32]
 80018f4:	d5bf      	bpl.n	8001876 <HAL_RCCEx_PeriphCLKConfig+0x3a>
 80018f6:	f7fe ffab 	bl	8000850 <HAL_GetTick>
 80018fa:	f241 3888 	movw	r8, #5000	@ 0x1388
 80018fe:	4607      	mov	r7, r0
 8001900:	6a23      	ldr	r3, [r4, #32]
 8001902:	0798      	lsls	r0, r3, #30
 8001904:	d4b7      	bmi.n	8001876 <HAL_RCCEx_PeriphCLKConfig+0x3a>
 8001906:	f7fe ffa3 	bl	8000850 <HAL_GetTick>
 800190a:	1bc0      	subs	r0, r0, r7
 800190c:	4540      	cmp	r0, r8
 800190e:	d9f7      	bls.n	8001900 <HAL_RCCEx_PeriphCLKConfig+0xc4>
 8001910:	e7dc      	b.n	80018cc <HAL_RCCEx_PeriphCLKConfig+0x90>
 8001912:	4a04      	ldr	r2, [pc, #16]	@ (8001924 <HAL_RCCEx_PeriphCLKConfig+0xe8>)
 8001914:	68e9      	ldr	r1, [r5, #12]
 8001916:	6853      	ldr	r3, [r2, #4]
 8001918:	f423 0380 	bic.w	r3, r3, #4194304	@ 0x400000
 800191c:	430b      	orrs	r3, r1
 800191e:	6053      	str	r3, [r2, #4]
 8001920:	e7c0      	b.n	80018a4 <HAL_RCCEx_PeriphCLKConfig+0x68>
 8001922:	bf00      	nop
 8001924:	40021000 	.word	0x40021000
 8001928:	40007000 	.word	0x40007000
 800192c:	42420000 	.word	0x42420000

08001930 <HAL_RCCEx_GetPeriphCLKFreq>:
 8001930:	2802      	cmp	r0, #2
 8001932:	b508      	push	{r3, lr}
 8001934:	d044      	beq.n	80019c0 <HAL_RCCEx_GetPeriphCLKFreq+0x90>
 8001936:	2810      	cmp	r0, #16
 8001938:	d003      	beq.n	8001942 <HAL_RCCEx_GetPeriphCLKFreq+0x12>
 800193a:	2801      	cmp	r0, #1
 800193c:	d022      	beq.n	8001984 <HAL_RCCEx_GetPeriphCLKFreq+0x54>
 800193e:	2000      	movs	r0, #0
 8001940:	e034      	b.n	80019ac <HAL_RCCEx_GetPeriphCLKFreq+0x7c>
 8001942:	4b25      	ldr	r3, [pc, #148]	@ (80019d8 <HAL_RCCEx_GetPeriphCLKFreq+0xa8>)
 8001944:	685a      	ldr	r2, [r3, #4]
 8001946:	6818      	ldr	r0, [r3, #0]
 8001948:	f010 7080 	ands.w	r0, r0, #16777216	@ 0x1000000
 800194c:	d02e      	beq.n	80019ac <HAL_RCCEx_GetPeriphCLKFreq+0x7c>
 800194e:	f3c2 4183 	ubfx	r1, r2, #18, #4
 8001952:	4822      	ldr	r0, [pc, #136]	@ (80019dc <HAL_RCCEx_GetPeriphCLKFreq+0xac>)
 8001954:	03d2      	lsls	r2, r2, #15
 8001956:	bf48      	it	mi
 8001958:	685a      	ldrmi	r2, [r3, #4]
 800195a:	5c40      	ldrb	r0, [r0, r1]
 800195c:	bf41      	itttt	mi
 800195e:	4920      	ldrmi	r1, [pc, #128]	@ (80019e0 <HAL_RCCEx_GetPeriphCLKFreq+0xb0>)
 8001960:	f3c2 4240 	ubfxmi	r2, r2, #17, #1
 8001964:	5c89      	ldrbmi	r1, [r1, r2]
 8001966:	4a1f      	ldrmi	r2, [pc, #124]	@ (80019e4 <HAL_RCCEx_GetPeriphCLKFreq+0xb4>)
 8001968:	685b      	ldr	r3, [r3, #4]
 800196a:	bf4c      	ite	mi
 800196c:	fbb2 f2f1 	udivmi	r2, r2, r1
 8001970:	4a1d      	ldrpl	r2, [pc, #116]	@ (80019e8 <HAL_RCCEx_GetPeriphCLKFreq+0xb8>)
 8001972:	025b      	lsls	r3, r3, #9
 8001974:	fb02 f000 	mul.w	r0, r2, r0
 8001978:	d418      	bmi.n	80019ac <HAL_RCCEx_GetPeriphCLKFreq+0x7c>
 800197a:	2303      	movs	r3, #3
 800197c:	0040      	lsls	r0, r0, #1
 800197e:	fbb0 f0f3 	udiv	r0, r0, r3
 8001982:	e013      	b.n	80019ac <HAL_RCCEx_GetPeriphCLKFreq+0x7c>
 8001984:	f240 3102 	movw	r1, #770	@ 0x302
 8001988:	4a13      	ldr	r2, [pc, #76]	@ (80019d8 <HAL_RCCEx_GetPeriphCLKFreq+0xa8>)
 800198a:	6a13      	ldr	r3, [r2, #32]
 800198c:	4019      	ands	r1, r3
 800198e:	f5b1 7f81 	cmp.w	r1, #258	@ 0x102
 8001992:	d01e      	beq.n	80019d2 <HAL_RCCEx_GetPeriphCLKFreq+0xa2>
 8001994:	f403 7340 	and.w	r3, r3, #768	@ 0x300
 8001998:	f5b3 7f00 	cmp.w	r3, #512	@ 0x200
 800199c:	d107      	bne.n	80019ae <HAL_RCCEx_GetPeriphCLKFreq+0x7e>
 800199e:	f649 4040 	movw	r0, #40000	@ 0x9c40
 80019a2:	6a53      	ldr	r3, [r2, #36]	@ 0x24
 80019a4:	f013 0f02 	tst.w	r3, #2
 80019a8:	bf08      	it	eq
 80019aa:	2000      	moveq	r0, #0
 80019ac:	bd08      	pop	{r3, pc}
 80019ae:	f5b3 7f40 	cmp.w	r3, #768	@ 0x300
 80019b2:	d1c4      	bne.n	800193e <HAL_RCCEx_GetPeriphCLKFreq+0xe>
 80019b4:	6813      	ldr	r3, [r2, #0]
 80019b6:	f24f 4024 	movw	r0, #62500	@ 0xf424
 80019ba:	f413 3f00 	tst.w	r3, #131072	@ 0x20000
 80019be:	e7f3      	b.n	80019a8 <HAL_RCCEx_GetPeriphCLKFreq+0x78>
 80019c0:	f7ff ff2c 	bl	800181c <HAL_RCC_GetPCLK2Freq>
 80019c4:	4b04      	ldr	r3, [pc, #16]	@ (80019d8 <HAL_RCCEx_GetPeriphCLKFreq+0xa8>)
 80019c6:	685b      	ldr	r3, [r3, #4]
 80019c8:	f3c3 3381 	ubfx	r3, r3, #14, #2
 80019cc:	3301      	adds	r3, #1
 80019ce:	005b      	lsls	r3, r3, #1
 80019d0:	e7d5      	b.n	800197e <HAL_RCCEx_GetPeriphCLKFreq+0x4e>
 80019d2:	f44f 4000 	mov.w	r0, #32768	@ 0x8000
 80019d6:	e7e9      	b.n	80019ac <HAL_RCCEx_GetPeriphCLKFreq+0x7c>
 80019d8:	40021000 	.word	0x40021000
 80019dc:	0800314f 	.word	0x0800314f
 80019e0:	0800314d 	.word	0x0800314d
 80019e4:	007a1200 	.word	0x007a1200
 80019e8:	003d0900 	.word	0x003d0900

080019ec <SPI_WaitFlagStateUntilTimeout>:
 80019ec:	e92d 47f3 	stmdb	sp!, {r0, r1, r4, r5, r6, r7, r8, r9, sl, lr}
 80019f0:	461f      	mov	r7, r3
 80019f2:	4689      	mov	r9, r1
 80019f4:	4690      	mov	r8, r2
 80019f6:	4604      	mov	r4, r0
 80019f8:	f7fe ff2a 	bl	8000850 <HAL_GetTick>
 80019fc:	9d0a      	ldr	r5, [sp, #40]	@ 0x28
 80019fe:	443d      	add	r5, r7
 8001a00:	1a2d      	subs	r5, r5, r0
 8001a02:	f7fe ff25 	bl	8000850 <HAL_GetTick>
 8001a06:	4682      	mov	sl, r0
 8001a08:	4b25      	ldr	r3, [pc, #148]	@ (8001aa0 <SPI_WaitFlagStateUntilTimeout+0xb4>)
 8001a0a:	681e      	ldr	r6, [r3, #0]
 8001a0c:	f3c6 36cb 	ubfx	r6, r6, #15, #12
 8001a10:	436e      	muls	r6, r5
 8001a12:	9601      	str	r6, [sp, #4]
 8001a14:	6822      	ldr	r2, [r4, #0]
 8001a16:	6893      	ldr	r3, [r2, #8]
 8001a18:	ea39 0303 	bics.w	r3, r9, r3
 8001a1c:	bf0c      	ite	eq
 8001a1e:	2301      	moveq	r3, #1
 8001a20:	2300      	movne	r3, #0
 8001a22:	4543      	cmp	r3, r8
 8001a24:	d101      	bne.n	8001a2a <SPI_WaitFlagStateUntilTimeout+0x3e>
 8001a26:	2000      	movs	r0, #0
 8001a28:	e02e      	b.n	8001a88 <SPI_WaitFlagStateUntilTimeout+0x9c>
 8001a2a:	1c7b      	adds	r3, r7, #1
 8001a2c:	d0f3      	beq.n	8001a16 <SPI_WaitFlagStateUntilTimeout+0x2a>
 8001a2e:	f7fe ff0f 	bl	8000850 <HAL_GetTick>
 8001a32:	eba0 000a 	sub.w	r0, r0, sl
 8001a36:	42a8      	cmp	r0, r5
 8001a38:	d329      	bcc.n	8001a8e <SPI_WaitFlagStateUntilTimeout+0xa2>
 8001a3a:	6823      	ldr	r3, [r4, #0]
 8001a3c:	685a      	ldr	r2, [r3, #4]
 8001a3e:	f022 02e0 	bic.w	r2, r2, #224	@ 0xe0
 8001a42:	605a      	str	r2, [r3, #4]
 8001a44:	6862      	ldr	r2, [r4, #4]
 8001a46:	f5b2 7f82 	cmp.w	r2, #260	@ 0x104
 8001a4a:	d10a      	bne.n	8001a62 <SPI_WaitFlagStateUntilTimeout+0x76>
 8001a4c:	68a2      	ldr	r2, [r4, #8]
 8001a4e:	f5b2 4f00 	cmp.w	r2, #32768	@ 0x8000
 8001a52:	d002      	beq.n	8001a5a <SPI_WaitFlagStateUntilTimeout+0x6e>
 8001a54:	f5b2 6f80 	cmp.w	r2, #1024	@ 0x400
 8001a58:	d103      	bne.n	8001a62 <SPI_WaitFlagStateUntilTimeout+0x76>
 8001a5a:	681a      	ldr	r2, [r3, #0]
 8001a5c:	f022 0240 	bic.w	r2, r2, #64	@ 0x40
 8001a60:	601a      	str	r2, [r3, #0]
 8001a62:	6aa2      	ldr	r2, [r4, #40]	@ 0x28
 8001a64:	f5b2 5f00 	cmp.w	r2, #8192	@ 0x2000
 8001a68:	d107      	bne.n	8001a7a <SPI_WaitFlagStateUntilTimeout+0x8e>
 8001a6a:	681a      	ldr	r2, [r3, #0]
 8001a6c:	f422 5200 	bic.w	r2, r2, #8192	@ 0x2000
 8001a70:	601a      	str	r2, [r3, #0]
 8001a72:	681a      	ldr	r2, [r3, #0]
 8001a74:	f442 5200 	orr.w	r2, r2, #8192	@ 0x2000
 8001a78:	601a      	str	r2, [r3, #0]
 8001a7a:	2301      	movs	r3, #1
 8001a7c:	f884 3051 	strb.w	r3, [r4, #81]	@ 0x51
 8001a80:	2300      	movs	r3, #0
 8001a82:	2003      	movs	r0, #3
 8001a84:	f884 3050 	strb.w	r3, [r4, #80]	@ 0x50
 8001a88:	b002      	add	sp, #8
 8001a8a:	e8bd 87f0 	ldmia.w	sp!, {r4, r5, r6, r7, r8, r9, sl, pc}
 8001a8e:	9a01      	ldr	r2, [sp, #4]
 8001a90:	9b01      	ldr	r3, [sp, #4]
 8001a92:	2a00      	cmp	r2, #0
 8001a94:	f103 33ff 	add.w	r3, r3, #4294967295	@ 0xffffffff
 8001a98:	bf08      	it	eq
 8001a9a:	4615      	moveq	r5, r2
 8001a9c:	9301      	str	r3, [sp, #4]
 8001a9e:	e7b9      	b.n	8001a14 <SPI_WaitFlagStateUntilTimeout+0x28>
 8001aa0:	20000000 	.word	0x20000000

08001aa4 <SPI_EndRxTxTransaction>:
 8001aa4:	b573      	push	{r0, r1, r4, r5, r6, lr}
 8001aa6:	460b      	mov	r3, r1
 8001aa8:	9200      	str	r2, [sp, #0]
 8001aaa:	460d      	mov	r5, r1
 8001aac:	4616      	mov	r6, r2
 8001aae:	2102      	movs	r1, #2
 8001ab0:	2201      	movs	r2, #1
 8001ab2:	4604      	mov	r4, r0
 8001ab4:	f7ff ff9a 	bl	80019ec <SPI_WaitFlagStateUntilTimeout>
 8001ab8:	4602      	mov	r2, r0
 8001aba:	b128      	cbz	r0, 8001ac8 <SPI_EndRxTxTransaction+0x24>
 8001abc:	6d63      	ldr	r3, [r4, #84]	@ 0x54
 8001abe:	2003      	movs	r0, #3
 8001ac0:	f043 0320 	orr.w	r3, r3, #32
 8001ac4:	6563      	str	r3, [r4, #84]	@ 0x54
 8001ac6:	e007      	b.n	8001ad8 <SPI_EndRxTxTransaction+0x34>
 8001ac8:	462b      	mov	r3, r5
 8001aca:	2180      	movs	r1, #128	@ 0x80
 8001acc:	4620      	mov	r0, r4
 8001ace:	9600      	str	r6, [sp, #0]
 8001ad0:	f7ff ff8c 	bl	80019ec <SPI_WaitFlagStateUntilTimeout>
 8001ad4:	2800      	cmp	r0, #0
 8001ad6:	d1f1      	bne.n	8001abc <SPI_EndRxTxTransaction+0x18>
 8001ad8:	b002      	add	sp, #8
 8001ada:	bd70      	pop	{r4, r5, r6, pc}

08001adc <HAL_SPI_Init>:
 8001adc:	b510      	push	{r4, lr}
 8001ade:	4604      	mov	r4, r0
 8001ae0:	2800      	cmp	r0, #0
 8001ae2:	d051      	beq.n	8001b88 <HAL_SPI_Init+0xac>
 8001ae4:	6a43      	ldr	r3, [r0, #36]	@ 0x24
 8001ae6:	2b00      	cmp	r3, #0
 8001ae8:	d14a      	bne.n	8001b80 <HAL_SPI_Init+0xa4>
 8001aea:	6842      	ldr	r2, [r0, #4]
 8001aec:	f5b2 7f82 	cmp.w	r2, #260	@ 0x104
 8001af0:	d000      	beq.n	8001af4 <HAL_SPI_Init+0x18>
 8001af2:	61c3      	str	r3, [r0, #28]
 8001af4:	2300      	movs	r3, #0
 8001af6:	62a3      	str	r3, [r4, #40]	@ 0x28
 8001af8:	f894 3051 	ldrb.w	r3, [r4, #81]	@ 0x51
 8001afc:	f003 02ff 	and.w	r2, r3, #255	@ 0xff
 8001b00:	b923      	cbnz	r3, 8001b0c <HAL_SPI_Init+0x30>
 8001b02:	4620      	mov	r0, r4
 8001b04:	f884 2050 	strb.w	r2, [r4, #80]	@ 0x50
 8001b08:	f7fe fdde 	bl	80006c8 <HAL_SPI_MspInit>
 8001b0c:	2302      	movs	r3, #2
 8001b0e:	6822      	ldr	r2, [r4, #0]
 8001b10:	f884 3051 	strb.w	r3, [r4, #81]	@ 0x51
 8001b14:	6813      	ldr	r3, [r2, #0]
 8001b16:	68a0      	ldr	r0, [r4, #8]
 8001b18:	f023 0340 	bic.w	r3, r3, #64	@ 0x40
 8001b1c:	6013      	str	r3, [r2, #0]
 8001b1e:	6863      	ldr	r3, [r4, #4]
 8001b20:	f400 4004 	and.w	r0, r0, #33792	@ 0x8400
 8001b24:	f403 7382 	and.w	r3, r3, #260	@ 0x104
 8001b28:	4303      	orrs	r3, r0
 8001b2a:	68e0      	ldr	r0, [r4, #12]
 8001b2c:	69a1      	ldr	r1, [r4, #24]
 8001b2e:	f400 6000 	and.w	r0, r0, #2048	@ 0x800
 8001b32:	4303      	orrs	r3, r0
 8001b34:	6920      	ldr	r0, [r4, #16]
 8001b36:	f000 0002 	and.w	r0, r0, #2
 8001b3a:	4303      	orrs	r3, r0
 8001b3c:	6960      	ldr	r0, [r4, #20]
 8001b3e:	f000 0001 	and.w	r0, r0, #1
 8001b42:	4303      	orrs	r3, r0
 8001b44:	f401 7000 	and.w	r0, r1, #512	@ 0x200
 8001b48:	4303      	orrs	r3, r0
 8001b4a:	69e0      	ldr	r0, [r4, #28]
 8001b4c:	0c09      	lsrs	r1, r1, #16
 8001b4e:	f000 0038 	and.w	r0, r0, #56	@ 0x38
 8001b52:	4303      	orrs	r3, r0
 8001b54:	6a20      	ldr	r0, [r4, #32]
 8001b56:	f001 0104 	and.w	r1, r1, #4
 8001b5a:	f000 0080 	and.w	r0, r0, #128	@ 0x80
 8001b5e:	4303      	orrs	r3, r0
 8001b60:	6aa0      	ldr	r0, [r4, #40]	@ 0x28
 8001b62:	f400 5000 	and.w	r0, r0, #8192	@ 0x2000
 8001b66:	4303      	orrs	r3, r0
 8001b68:	6013      	str	r3, [r2, #0]
 8001b6a:	6051      	str	r1, [r2, #4]
 8001b6c:	69d3      	ldr	r3, [r2, #28]
 8001b6e:	2000      	movs	r0, #0
 8001b70:	f423 6300 	bic.w	r3, r3, #2048	@ 0x800
 8001b74:	61d3      	str	r3, [r2, #28]
 8001b76:	2301      	movs	r3, #1
 8001b78:	6560      	str	r0, [r4, #84]	@ 0x54
 8001b7a:	f884 3051 	strb.w	r3, [r4, #81]	@ 0x51
 8001b7e:	bd10      	pop	{r4, pc}
 8001b80:	2300      	movs	r3, #0
 8001b82:	e9c0 3304 	strd	r3, r3, [r0, #16]
 8001b86:	e7b5      	b.n	8001af4 <HAL_SPI_Init+0x18>
 8001b88:	2001      	movs	r0, #1
 8001b8a:	e7f8      	b.n	8001b7e <HAL_SPI_Init+0xa2>

08001b8c <HAL_SPI_Transmit>:
 8001b8c:	e92d 43f7 	stmdb	sp!, {r0, r1, r2, r4, r5, r6, r7, r8, r9, lr}
 8001b90:	4604      	mov	r4, r0
 8001b92:	461f      	mov	r7, r3
 8001b94:	460d      	mov	r5, r1
 8001b96:	4690      	mov	r8, r2
 8001b98:	f7fe fe5a 	bl	8000850 <HAL_GetTick>
 8001b9c:	f894 3051 	ldrb.w	r3, [r4, #81]	@ 0x51
 8001ba0:	4681      	mov	r9, r0
 8001ba2:	2b01      	cmp	r3, #1
 8001ba4:	b2d8      	uxtb	r0, r3
 8001ba6:	f040 809f 	bne.w	8001ce8 <HAL_SPI_Transmit+0x15c>
 8001baa:	2d00      	cmp	r5, #0
 8001bac:	d074      	beq.n	8001c98 <HAL_SPI_Transmit+0x10c>
 8001bae:	f1b8 0f00 	cmp.w	r8, #0
 8001bb2:	d071      	beq.n	8001c98 <HAL_SPI_Transmit+0x10c>
 8001bb4:	f894 3050 	ldrb.w	r3, [r4, #80]	@ 0x50
 8001bb8:	2b01      	cmp	r3, #1
 8001bba:	f000 8095 	beq.w	8001ce8 <HAL_SPI_Transmit+0x15c>
 8001bbe:	2303      	movs	r3, #3
 8001bc0:	f884 3051 	strb.w	r3, [r4, #81]	@ 0x51
 8001bc4:	2300      	movs	r3, #0
 8001bc6:	6563      	str	r3, [r4, #84]	@ 0x54
 8001bc8:	e9c4 3310 	strd	r3, r3, [r4, #64]	@ 0x40
 8001bcc:	f8a4 8036 	strh.w	r8, [r4, #54]	@ 0x36
 8001bd0:	63a3      	str	r3, [r4, #56]	@ 0x38
 8001bd2:	87a3      	strh	r3, [r4, #60]	@ 0x3c
 8001bd4:	87e3      	strh	r3, [r4, #62]	@ 0x3e
 8001bd6:	68a3      	ldr	r3, [r4, #8]
 8001bd8:	6826      	ldr	r6, [r4, #0]
 8001bda:	f5b3 4f00 	cmp.w	r3, #32768	@ 0x8000
 8001bde:	f884 0050 	strb.w	r0, [r4, #80]	@ 0x50
 8001be2:	6325      	str	r5, [r4, #48]	@ 0x30
 8001be4:	f8a4 8034 	strh.w	r8, [r4, #52]	@ 0x34
 8001be8:	d107      	bne.n	8001bfa <HAL_SPI_Transmit+0x6e>
 8001bea:	6833      	ldr	r3, [r6, #0]
 8001bec:	f023 0340 	bic.w	r3, r3, #64	@ 0x40
 8001bf0:	6033      	str	r3, [r6, #0]
 8001bf2:	6833      	ldr	r3, [r6, #0]
 8001bf4:	f443 4380 	orr.w	r3, r3, #16384	@ 0x4000
 8001bf8:	6033      	str	r3, [r6, #0]
 8001bfa:	6833      	ldr	r3, [r6, #0]
 8001bfc:	68e2      	ldr	r2, [r4, #12]
 8001bfe:	065b      	lsls	r3, r3, #25
 8001c00:	bf5e      	ittt	pl
 8001c02:	6833      	ldrpl	r3, [r6, #0]
 8001c04:	f043 0340 	orrpl.w	r3, r3, #64	@ 0x40
 8001c08:	6033      	strpl	r3, [r6, #0]
 8001c0a:	f5b2 6f00 	cmp.w	r2, #2048	@ 0x800
 8001c0e:	6863      	ldr	r3, [r4, #4]
 8001c10:	d145      	bne.n	8001c9e <HAL_SPI_Transmit+0x112>
 8001c12:	b113      	cbz	r3, 8001c1a <HAL_SPI_Transmit+0x8e>
 8001c14:	f1b8 0f01 	cmp.w	r8, #1
 8001c18:	d107      	bne.n	8001c2a <HAL_SPI_Transmit+0x9e>
 8001c1a:	f835 3b02 	ldrh.w	r3, [r5], #2
 8001c1e:	60f3      	str	r3, [r6, #12]
 8001c20:	6325      	str	r5, [r4, #48]	@ 0x30
 8001c22:	8ee3      	ldrh	r3, [r4, #54]	@ 0x36
 8001c24:	3b01      	subs	r3, #1
 8001c26:	b29b      	uxth	r3, r3
 8001c28:	86e3      	strh	r3, [r4, #54]	@ 0x36
 8001c2a:	8ee3      	ldrh	r3, [r4, #54]	@ 0x36
 8001c2c:	b29b      	uxth	r3, r3
 8001c2e:	b9d3      	cbnz	r3, 8001c66 <HAL_SPI_Transmit+0xda>
 8001c30:	464a      	mov	r2, r9
 8001c32:	4639      	mov	r1, r7
 8001c34:	4620      	mov	r0, r4
 8001c36:	f7ff ff35 	bl	8001aa4 <SPI_EndRxTxTransaction>
 8001c3a:	2800      	cmp	r0, #0
 8001c3c:	d151      	bne.n	8001ce2 <HAL_SPI_Transmit+0x156>
 8001c3e:	68a3      	ldr	r3, [r4, #8]
 8001c40:	b933      	cbnz	r3, 8001c50 <HAL_SPI_Transmit+0xc4>
 8001c42:	9301      	str	r3, [sp, #4]
 8001c44:	6823      	ldr	r3, [r4, #0]
 8001c46:	68da      	ldr	r2, [r3, #12]
 8001c48:	9201      	str	r2, [sp, #4]
 8001c4a:	689b      	ldr	r3, [r3, #8]
 8001c4c:	9301      	str	r3, [sp, #4]
 8001c4e:	9b01      	ldr	r3, [sp, #4]
 8001c50:	2301      	movs	r3, #1
 8001c52:	f884 3051 	strb.w	r3, [r4, #81]	@ 0x51
 8001c56:	2300      	movs	r3, #0
 8001c58:	6d60      	ldr	r0, [r4, #84]	@ 0x54
 8001c5a:	f884 3050 	strb.w	r3, [r4, #80]	@ 0x50
 8001c5e:	1ac0      	subs	r0, r0, r3
 8001c60:	bf18      	it	ne
 8001c62:	2001      	movne	r0, #1
 8001c64:	e018      	b.n	8001c98 <HAL_SPI_Transmit+0x10c>
 8001c66:	6822      	ldr	r2, [r4, #0]
 8001c68:	6893      	ldr	r3, [r2, #8]
 8001c6a:	0798      	lsls	r0, r3, #30
 8001c6c:	d505      	bpl.n	8001c7a <HAL_SPI_Transmit+0xee>
 8001c6e:	6b23      	ldr	r3, [r4, #48]	@ 0x30
 8001c70:	f833 1b02 	ldrh.w	r1, [r3], #2
 8001c74:	60d1      	str	r1, [r2, #12]
 8001c76:	6323      	str	r3, [r4, #48]	@ 0x30
 8001c78:	e7d3      	b.n	8001c22 <HAL_SPI_Transmit+0x96>
 8001c7a:	f7fe fde9 	bl	8000850 <HAL_GetTick>
 8001c7e:	eba0 0009 	sub.w	r0, r0, r9
 8001c82:	42b8      	cmp	r0, r7
 8001c84:	d3d1      	bcc.n	8001c2a <HAL_SPI_Transmit+0x9e>
 8001c86:	1c79      	adds	r1, r7, #1
 8001c88:	d0cf      	beq.n	8001c2a <HAL_SPI_Transmit+0x9e>
 8001c8a:	2301      	movs	r3, #1
 8001c8c:	f884 3051 	strb.w	r3, [r4, #81]	@ 0x51
 8001c90:	2300      	movs	r3, #0
 8001c92:	2003      	movs	r0, #3
 8001c94:	f884 3050 	strb.w	r3, [r4, #80]	@ 0x50
 8001c98:	b003      	add	sp, #12
 8001c9a:	e8bd 83f0 	ldmia.w	sp!, {r4, r5, r6, r7, r8, r9, pc}
 8001c9e:	b113      	cbz	r3, 8001ca6 <HAL_SPI_Transmit+0x11a>
 8001ca0:	f1b8 0f01 	cmp.w	r8, #1
 8001ca4:	d108      	bne.n	8001cb8 <HAL_SPI_Transmit+0x12c>
 8001ca6:	782b      	ldrb	r3, [r5, #0]
 8001ca8:	7333      	strb	r3, [r6, #12]
 8001caa:	6b23      	ldr	r3, [r4, #48]	@ 0x30
 8001cac:	3301      	adds	r3, #1
 8001cae:	6323      	str	r3, [r4, #48]	@ 0x30
 8001cb0:	8ee3      	ldrh	r3, [r4, #54]	@ 0x36
 8001cb2:	3b01      	subs	r3, #1
 8001cb4:	b29b      	uxth	r3, r3
 8001cb6:	86e3      	strh	r3, [r4, #54]	@ 0x36
 8001cb8:	8ee3      	ldrh	r3, [r4, #54]	@ 0x36
 8001cba:	b29b      	uxth	r3, r3
 8001cbc:	2b00      	cmp	r3, #0
 8001cbe:	d0b7      	beq.n	8001c30 <HAL_SPI_Transmit+0xa4>
 8001cc0:	6823      	ldr	r3, [r4, #0]
 8001cc2:	689a      	ldr	r2, [r3, #8]
 8001cc4:	0792      	lsls	r2, r2, #30
 8001cc6:	d503      	bpl.n	8001cd0 <HAL_SPI_Transmit+0x144>
 8001cc8:	6b22      	ldr	r2, [r4, #48]	@ 0x30
 8001cca:	7812      	ldrb	r2, [r2, #0]
 8001ccc:	731a      	strb	r2, [r3, #12]
 8001cce:	e7ec      	b.n	8001caa <HAL_SPI_Transmit+0x11e>
 8001cd0:	f7fe fdbe 	bl	8000850 <HAL_GetTick>
 8001cd4:	eba0 0009 	sub.w	r0, r0, r9
 8001cd8:	42b8      	cmp	r0, r7
 8001cda:	d3ed      	bcc.n	8001cb8 <HAL_SPI_Transmit+0x12c>
 8001cdc:	1c7b      	adds	r3, r7, #1
 8001cde:	d0eb      	beq.n	8001cb8 <HAL_SPI_Transmit+0x12c>
 8001ce0:	e7d3      	b.n	8001c8a <HAL_SPI_Transmit+0xfe>
 8001ce2:	2320      	movs	r3, #32
 8001ce4:	6563      	str	r3, [r4, #84]	@ 0x54
 8001ce6:	e7aa      	b.n	8001c3e <HAL_SPI_Transmit+0xb2>
 8001ce8:	2002      	movs	r0, #2
 8001cea:	e7d5      	b.n	8001c98 <HAL_SPI_Transmit+0x10c>

08001cec <findslot>:
 8001cec:	4b0a      	ldr	r3, [pc, #40]	@ (8001d18 <findslot+0x2c>)
 8001cee:	b510      	push	{r4, lr}
 8001cf0:	4604      	mov	r4, r0
 8001cf2:	6818      	ldr	r0, [r3, #0]
 8001cf4:	b118      	cbz	r0, 8001cfe <findslot+0x12>
 8001cf6:	6a03      	ldr	r3, [r0, #32]
 8001cf8:	b90b      	cbnz	r3, 8001cfe <findslot+0x12>
 8001cfa:	f000 fb1f 	bl	800233c <__sinit>
 8001cfe:	2c13      	cmp	r4, #19
 8001d00:	d807      	bhi.n	8001d12 <findslot+0x26>
 8001d02:	4806      	ldr	r0, [pc, #24]	@ (8001d1c <findslot+0x30>)
 8001d04:	f850 2034 	ldr.w	r2, [r0, r4, lsl #3]
 8001d08:	3201      	adds	r2, #1
 8001d0a:	d002      	beq.n	8001d12 <findslot+0x26>
 8001d0c:	eb00 00c4 	add.w	r0, r0, r4, lsl #3
 8001d10:	bd10      	pop	{r4, pc}
 8001d12:	2000      	movs	r0, #0
 8001d14:	e7fc      	b.n	8001d10 <findslot+0x24>
 8001d16:	bf00      	nop
 8001d18:	20000020 	.word	0x20000020
 8001d1c:	20000174 	.word	0x20000174

08001d20 <error>:
 8001d20:	b5f8      	push	{r3, r4, r5, r6, r7, lr}
 8001d22:	4604      	mov	r4, r0
 8001d24:	f000 fb5a 	bl	80023dc <__errno>
 8001d28:	2613      	movs	r6, #19
 8001d2a:	4605      	mov	r5, r0
 8001d2c:	2700      	movs	r7, #0
 8001d2e:	4630      	mov	r0, r6
 8001d30:	4639      	mov	r1, r7
 8001d32:	beab      	bkpt	0x00ab
 8001d34:	4606      	mov	r6, r0
 8001d36:	4620      	mov	r0, r4
 8001d38:	602e      	str	r6, [r5, #0]
 8001d3a:	bdf8      	pop	{r3, r4, r5, r6, r7, pc}

08001d3c <checkerror>:
 8001d3c:	1c43      	adds	r3, r0, #1
 8001d3e:	d101      	bne.n	8001d44 <checkerror+0x8>
 8001d40:	f7ff bfee 	b.w	8001d20 <error>
 8001d44:	4770      	bx	lr

08001d46 <_swiread>:
 8001d46:	b530      	push	{r4, r5, lr}
 8001d48:	b085      	sub	sp, #20
 8001d4a:	2406      	movs	r4, #6
 8001d4c:	e9cd 0101 	strd	r0, r1, [sp, #4]
 8001d50:	9203      	str	r2, [sp, #12]
 8001d52:	ad01      	add	r5, sp, #4
 8001d54:	4620      	mov	r0, r4
 8001d56:	4629      	mov	r1, r5
 8001d58:	beab      	bkpt	0x00ab
 8001d5a:	4604      	mov	r4, r0
 8001d5c:	4620      	mov	r0, r4
 8001d5e:	f7ff ffed 	bl	8001d3c <checkerror>
 8001d62:	b005      	add	sp, #20
 8001d64:	bd30      	pop	{r4, r5, pc}

08001d66 <_read>:
 8001d66:	b570      	push	{r4, r5, r6, lr}
 8001d68:	460e      	mov	r6, r1
 8001d6a:	4614      	mov	r4, r2
 8001d6c:	f7ff ffbe 	bl	8001cec <findslot>
 8001d70:	4605      	mov	r5, r0
 8001d72:	b930      	cbnz	r0, 8001d82 <_read+0x1c>
 8001d74:	f000 fb32 	bl	80023dc <__errno>
 8001d78:	2309      	movs	r3, #9
 8001d7a:	6003      	str	r3, [r0, #0]
 8001d7c:	f04f 30ff 	mov.w	r0, #4294967295	@ 0xffffffff
 8001d80:	bd70      	pop	{r4, r5, r6, pc}
 8001d82:	4622      	mov	r2, r4
 8001d84:	4631      	mov	r1, r6
 8001d86:	6800      	ldr	r0, [r0, #0]
 8001d88:	f7ff ffdd 	bl	8001d46 <_swiread>
 8001d8c:	1c43      	adds	r3, r0, #1
 8001d8e:	d0f5      	beq.n	8001d7c <_read+0x16>
 8001d90:	686b      	ldr	r3, [r5, #4]
 8001d92:	1a20      	subs	r0, r4, r0
 8001d94:	4403      	add	r3, r0
 8001d96:	606b      	str	r3, [r5, #4]
 8001d98:	e7f2      	b.n	8001d80 <_read+0x1a>

08001d9a <_swilseek>:
 8001d9a:	b5f7      	push	{r0, r1, r2, r4, r5, r6, r7, lr}
 8001d9c:	460c      	mov	r4, r1
 8001d9e:	4616      	mov	r6, r2
 8001da0:	f7ff ffa4 	bl	8001cec <findslot>
 8001da4:	4605      	mov	r5, r0
 8001da6:	b940      	cbnz	r0, 8001dba <_swilseek+0x20>
 8001da8:	f000 fb18 	bl	80023dc <__errno>
 8001dac:	2309      	movs	r3, #9
 8001dae:	6003      	str	r3, [r0, #0]
 8001db0:	f04f 34ff 	mov.w	r4, #4294967295	@ 0xffffffff
 8001db4:	4620      	mov	r0, r4
 8001db6:	b003      	add	sp, #12
 8001db8:	bdf0      	pop	{r4, r5, r6, r7, pc}
 8001dba:	2e02      	cmp	r6, #2
 8001dbc:	d903      	bls.n	8001dc6 <_swilseek+0x2c>
 8001dbe:	f000 fb0d 	bl	80023dc <__errno>
 8001dc2:	2316      	movs	r3, #22
 8001dc4:	e7f3      	b.n	8001dae <_swilseek+0x14>
 8001dc6:	2e01      	cmp	r6, #1
 8001dc8:	d112      	bne.n	8001df0 <_swilseek+0x56>
 8001dca:	6843      	ldr	r3, [r0, #4]
 8001dcc:	18e4      	adds	r4, r4, r3
 8001dce:	d4f6      	bmi.n	8001dbe <_swilseek+0x24>
 8001dd0:	682b      	ldr	r3, [r5, #0]
 8001dd2:	260a      	movs	r6, #10
 8001dd4:	466f      	mov	r7, sp
 8001dd6:	e9cd 3400 	strd	r3, r4, [sp]
 8001dda:	4630      	mov	r0, r6
 8001ddc:	4639      	mov	r1, r7
 8001dde:	beab      	bkpt	0x00ab
 8001de0:	4606      	mov	r6, r0
 8001de2:	4630      	mov	r0, r6
 8001de4:	f7ff ffaa 	bl	8001d3c <checkerror>
 8001de8:	2800      	cmp	r0, #0
 8001dea:	dbe1      	blt.n	8001db0 <_swilseek+0x16>
 8001dec:	606c      	str	r4, [r5, #4]
 8001dee:	e7e1      	b.n	8001db4 <_swilseek+0x1a>
 8001df0:	2e02      	cmp	r6, #2
 8001df2:	6803      	ldr	r3, [r0, #0]
 8001df4:	d1ec      	bne.n	8001dd0 <_swilseek+0x36>
 8001df6:	260c      	movs	r6, #12
 8001df8:	466f      	mov	r7, sp
 8001dfa:	9300      	str	r3, [sp, #0]
 8001dfc:	4630      	mov	r0, r6
 8001dfe:	4639      	mov	r1, r7
 8001e00:	beab      	bkpt	0x00ab
 8001e02:	4606      	mov	r6, r0
 8001e04:	4630      	mov	r0, r6
 8001e06:	f7ff ff99 	bl	8001d3c <checkerror>
 8001e0a:	1c43      	adds	r3, r0, #1
 8001e0c:	d0d0      	beq.n	8001db0 <_swilseek+0x16>
 8001e0e:	4404      	add	r4, r0
 8001e10:	e7de      	b.n	8001dd0 <_swilseek+0x36>

08001e12 <_lseek>:
 8001e12:	f7ff bfc2 	b.w	8001d9a <_swilseek>

08001e16 <_swiwrite>:
 8001e16:	b530      	push	{r4, r5, lr}
 8001e18:	b085      	sub	sp, #20
 8001e1a:	2405      	movs	r4, #5
 8001e1c:	e9cd 0101 	strd	r0, r1, [sp, #4]
 8001e20:	9203      	str	r2, [sp, #12]
 8001e22:	ad01      	add	r5, sp, #4
 8001e24:	4620      	mov	r0, r4
 8001e26:	4629      	mov	r1, r5
 8001e28:	beab      	bkpt	0x00ab
 8001e2a:	4604      	mov	r4, r0
 8001e2c:	4620      	mov	r0, r4
 8001e2e:	f7ff ff85 	bl	8001d3c <checkerror>
 8001e32:	b005      	add	sp, #20
 8001e34:	bd30      	pop	{r4, r5, pc}

08001e36 <_write>:
 8001e36:	b570      	push	{r4, r5, r6, lr}
 8001e38:	460e      	mov	r6, r1
 8001e3a:	4615      	mov	r5, r2
 8001e3c:	f7ff ff56 	bl	8001cec <findslot>
 8001e40:	4604      	mov	r4, r0
 8001e42:	b930      	cbnz	r0, 8001e52 <_write+0x1c>
 8001e44:	f000 faca 	bl	80023dc <__errno>
 8001e48:	2309      	movs	r3, #9
 8001e4a:	6003      	str	r3, [r0, #0]
 8001e4c:	f04f 30ff 	mov.w	r0, #4294967295	@ 0xffffffff
 8001e50:	bd70      	pop	{r4, r5, r6, pc}
 8001e52:	462a      	mov	r2, r5
 8001e54:	4631      	mov	r1, r6
 8001e56:	6800      	ldr	r0, [r0, #0]
 8001e58:	f7ff ffdd 	bl	8001e16 <_swiwrite>
 8001e5c:	1e03      	subs	r3, r0, #0
 8001e5e:	dbf5      	blt.n	8001e4c <_write+0x16>
 8001e60:	6862      	ldr	r2, [r4, #4]
 8001e62:	1ae8      	subs	r0, r5, r3
 8001e64:	4402      	add	r2, r0
 8001e66:	42ab      	cmp	r3, r5
 8001e68:	6062      	str	r2, [r4, #4]
 8001e6a:	d1f1      	bne.n	8001e50 <_write+0x1a>
 8001e6c:	e8bd 4070 	ldmia.w	sp!, {r4, r5, r6, lr}
 8001e70:	2000      	movs	r0, #0
 8001e72:	f7ff bf55 	b.w	8001d20 <error>

08001e76 <_swiclose>:
 8001e76:	b537      	push	{r0, r1, r2, r4, r5, lr}
 8001e78:	2402      	movs	r4, #2
 8001e7a:	9001      	str	r0, [sp, #4]
 8001e7c:	ad01      	add	r5, sp, #4
 8001e7e:	4620      	mov	r0, r4
 8001e80:	4629      	mov	r1, r5
 8001e82:	beab      	bkpt	0x00ab
 8001e84:	4604      	mov	r4, r0
 8001e86:	4620      	mov	r0, r4
 8001e88:	f7ff ff58 	bl	8001d3c <checkerror>
 8001e8c:	b003      	add	sp, #12
 8001e8e:	bd30      	pop	{r4, r5, pc}

08001e90 <_close>:
 8001e90:	b538      	push	{r3, r4, r5, lr}
 8001e92:	4605      	mov	r5, r0
 8001e94:	f7ff ff2a 	bl	8001cec <findslot>
 8001e98:	4604      	mov	r4, r0
 8001e9a:	b930      	cbnz	r0, 8001eaa <_close+0x1a>
 8001e9c:	f000 fa9e 	bl	80023dc <__errno>
 8001ea0:	2309      	movs	r3, #9
 8001ea2:	6003      	str	r3, [r0, #0]
 8001ea4:	f04f 30ff 	mov.w	r0, #4294967295	@ 0xffffffff
 8001ea8:	bd38      	pop	{r3, r4, r5, pc}
 8001eaa:	3d01      	subs	r5, #1
 8001eac:	2d01      	cmp	r5, #1
 8001eae:	d809      	bhi.n	8001ec4 <_close+0x34>
 8001eb0:	4b09      	ldr	r3, [pc, #36]	@ (8001ed8 <_close+0x48>)
 8001eb2:	689a      	ldr	r2, [r3, #8]
 8001eb4:	691b      	ldr	r3, [r3, #16]
 8001eb6:	429a      	cmp	r2, r3
 8001eb8:	d104      	bne.n	8001ec4 <_close+0x34>
 8001eba:	f04f 33ff 	mov.w	r3, #4294967295	@ 0xffffffff
 8001ebe:	6003      	str	r3, [r0, #0]
 8001ec0:	2000      	movs	r0, #0
 8001ec2:	e7f1      	b.n	8001ea8 <_close+0x18>
 8001ec4:	6820      	ldr	r0, [r4, #0]
 8001ec6:	f7ff ffd6 	bl	8001e76 <_swiclose>
 8001eca:	2800      	cmp	r0, #0
 8001ecc:	d1ec      	bne.n	8001ea8 <_close+0x18>
 8001ece:	f04f 33ff 	mov.w	r3, #4294967295	@ 0xffffffff
 8001ed2:	6023      	str	r3, [r4, #0]
 8001ed4:	e7e8      	b.n	8001ea8 <_close+0x18>
 8001ed6:	bf00      	nop
 8001ed8:	20000174 	.word	0x20000174

08001edc <_swistat>:
 8001edc:	b570      	push	{r4, r5, r6, lr}
 8001ede:	460c      	mov	r4, r1
 8001ee0:	f7ff ff04 	bl	8001cec <findslot>
 8001ee4:	4605      	mov	r5, r0
 8001ee6:	b930      	cbnz	r0, 8001ef6 <_swistat+0x1a>
 8001ee8:	f000 fa78 	bl	80023dc <__errno>
 8001eec:	2309      	movs	r3, #9
 8001eee:	6003      	str	r3, [r0, #0]
 8001ef0:	f04f 30ff 	mov.w	r0, #4294967295	@ 0xffffffff
 8001ef4:	bd70      	pop	{r4, r5, r6, pc}
 8001ef6:	6863      	ldr	r3, [r4, #4]
 8001ef8:	260c      	movs	r6, #12
 8001efa:	f443 5300 	orr.w	r3, r3, #8192	@ 0x2000
 8001efe:	6063      	str	r3, [r4, #4]
 8001f00:	f44f 6380 	mov.w	r3, #1024	@ 0x400
 8001f04:	64a3      	str	r3, [r4, #72]	@ 0x48
 8001f06:	4630      	mov	r0, r6
 8001f08:	4629      	mov	r1, r5
 8001f0a:	beab      	bkpt	0x00ab
 8001f0c:	4605      	mov	r5, r0
 8001f0e:	4628      	mov	r0, r5
 8001f10:	f7ff ff14 	bl	8001d3c <checkerror>
 8001f14:	1c43      	adds	r3, r0, #1
 8001f16:	d0eb      	beq.n	8001ef0 <_swistat+0x14>
 8001f18:	6120      	str	r0, [r4, #16]
 8001f1a:	2000      	movs	r0, #0
 8001f1c:	e7ea      	b.n	8001ef4 <_swistat+0x18>

08001f1e <_fstat>:
 8001f1e:	460b      	mov	r3, r1
 8001f20:	b510      	push	{r4, lr}
 8001f22:	2100      	movs	r1, #0
 8001f24:	4604      	mov	r4, r0
 8001f26:	2258      	movs	r2, #88	@ 0x58
 8001f28:	4618      	mov	r0, r3
 8001f2a:	f000 fa4f 	bl	80023cc <memset>
 8001f2e:	4601      	mov	r1, r0
 8001f30:	4620      	mov	r0, r4
 8001f32:	e8bd 4010 	ldmia.w	sp!, {r4, lr}
 8001f36:	f7ff bfd1 	b.w	8001edc <_swistat>

08001f3a <_stat>:
 8001f3a:	b538      	push	{r3, r4, r5, lr}
 8001f3c:	460d      	mov	r5, r1
 8001f3e:	4604      	mov	r4, r0
 8001f40:	2258      	movs	r2, #88	@ 0x58
 8001f42:	2100      	movs	r1, #0
 8001f44:	4628      	mov	r0, r5
 8001f46:	f000 fa41 	bl	80023cc <memset>
 8001f4a:	4620      	mov	r0, r4
 8001f4c:	2100      	movs	r1, #0
 8001f4e:	f000 f811 	bl	8001f74 <_swiopen>
 8001f52:	1c43      	adds	r3, r0, #1
 8001f54:	4604      	mov	r4, r0
 8001f56:	d00b      	beq.n	8001f70 <_stat+0x36>
 8001f58:	686b      	ldr	r3, [r5, #4]
 8001f5a:	4629      	mov	r1, r5
 8001f5c:	f443 4301 	orr.w	r3, r3, #33024	@ 0x8100
 8001f60:	606b      	str	r3, [r5, #4]
 8001f62:	f7ff ffbb 	bl	8001edc <_swistat>
 8001f66:	4605      	mov	r5, r0
 8001f68:	4620      	mov	r0, r4
 8001f6a:	f7ff ff91 	bl	8001e90 <_close>
 8001f6e:	462c      	mov	r4, r5
 8001f70:	4620      	mov	r0, r4
 8001f72:	bd38      	pop	{r3, r4, r5, pc}

08001f74 <_swiopen>:
 8001f74:	e92d 47f0 	stmdb	sp!, {r4, r5, r6, r7, r8, r9, sl, lr}
 8001f78:	4607      	mov	r7, r0
 8001f7a:	460e      	mov	r6, r1
 8001f7c:	2400      	movs	r4, #0
 8001f7e:	f8df 90a4 	ldr.w	r9, [pc, #164]	@ 8002024 <_swiopen+0xb0>
 8001f82:	b096      	sub	sp, #88	@ 0x58
 8001f84:	f859 3034 	ldr.w	r3, [r9, r4, lsl #3]
 8001f88:	ea4f 08c4 	mov.w	r8, r4, lsl #3
 8001f8c:	3301      	adds	r3, #1
 8001f8e:	d032      	beq.n	8001ff6 <_swiopen+0x82>
 8001f90:	3401      	adds	r4, #1
 8001f92:	2c14      	cmp	r4, #20
 8001f94:	d1f6      	bne.n	8001f84 <_swiopen+0x10>
 8001f96:	f000 fa21 	bl	80023dc <__errno>
 8001f9a:	2318      	movs	r3, #24
 8001f9c:	e03a      	b.n	8002014 <_swiopen+0xa0>
 8001f9e:	f240 6301 	movw	r3, #1537	@ 0x601
 8001fa2:	f3c6 4500 	ubfx	r5, r6, #16, #1
 8001fa6:	07b2      	lsls	r2, r6, #30
 8001fa8:	bf48      	it	mi
 8001faa:	f045 0502 	orrmi.w	r5, r5, #2
 8001fae:	421e      	tst	r6, r3
 8001fb0:	bf18      	it	ne
 8001fb2:	f045 0504 	orrne.w	r5, r5, #4
 8001fb6:	0733      	lsls	r3, r6, #28
 8001fb8:	bf48      	it	mi
 8001fba:	f025 0504 	bicmi.w	r5, r5, #4
 8001fbe:	4638      	mov	r0, r7
 8001fc0:	bf48      	it	mi
 8001fc2:	f045 0508 	orrmi.w	r5, r5, #8
 8001fc6:	9700      	str	r7, [sp, #0]
 8001fc8:	f7fe f8c0 	bl	800014c <strlen>
 8001fcc:	e9cd 5001 	strd	r5, r0, [sp, #4]
 8001fd0:	2501      	movs	r5, #1
 8001fd2:	4628      	mov	r0, r5
 8001fd4:	4651      	mov	r1, sl
 8001fd6:	beab      	bkpt	0x00ab
 8001fd8:	4605      	mov	r5, r0
 8001fda:	2d00      	cmp	r5, #0
 8001fdc:	db06      	blt.n	8001fec <_swiopen+0x78>
 8001fde:	2300      	movs	r3, #0
 8001fe0:	44c8      	add	r8, r9
 8001fe2:	f849 5034 	str.w	r5, [r9, r4, lsl #3]
 8001fe6:	f8c8 3004 	str.w	r3, [r8, #4]
 8001fea:	e016      	b.n	800201a <_swiopen+0xa6>
 8001fec:	4628      	mov	r0, r5
 8001fee:	f7ff fe97 	bl	8001d20 <error>
 8001ff2:	4604      	mov	r4, r0
 8001ff4:	e011      	b.n	800201a <_swiopen+0xa6>
 8001ff6:	f406 6320 	and.w	r3, r6, #2560	@ 0xa00
 8001ffa:	f5b3 6f20 	cmp.w	r3, #2560	@ 0xa00
 8001ffe:	46ea      	mov	sl, sp
 8002000:	d1cd      	bne.n	8001f9e <_swiopen+0x2a>
 8002002:	4651      	mov	r1, sl
 8002004:	4638      	mov	r0, r7
 8002006:	f7ff ff98 	bl	8001f3a <_stat>
 800200a:	3001      	adds	r0, #1
 800200c:	d0c7      	beq.n	8001f9e <_swiopen+0x2a>
 800200e:	f000 f9e5 	bl	80023dc <__errno>
 8002012:	2311      	movs	r3, #17
 8002014:	f04f 34ff 	mov.w	r4, #4294967295	@ 0xffffffff
 8002018:	6003      	str	r3, [r0, #0]
 800201a:	4620      	mov	r0, r4
 800201c:	b016      	add	sp, #88	@ 0x58
 800201e:	e8bd 87f0 	ldmia.w	sp!, {r4, r5, r6, r7, r8, r9, sl, pc}
 8002022:	bf00      	nop
 8002024:	20000174 	.word	0x20000174

08002028 <_get_semihosting_exts>:
 8002028:	e92d 43f7 	stmdb	sp!, {r0, r1, r2, r4, r5, r6, r7, r8, r9, lr}
 800202c:	4606      	mov	r6, r0
 800202e:	460f      	mov	r7, r1
 8002030:	4829      	ldr	r0, [pc, #164]	@ (80020d8 <_get_semihosting_exts+0xb0>)
 8002032:	2100      	movs	r1, #0
 8002034:	4615      	mov	r5, r2
 8002036:	f7ff ff9d 	bl	8001f74 <_swiopen>
 800203a:	4604      	mov	r4, r0
 800203c:	462a      	mov	r2, r5
 800203e:	2100      	movs	r1, #0
 8002040:	4630      	mov	r0, r6
 8002042:	f000 f9c3 	bl	80023cc <memset>
 8002046:	1c63      	adds	r3, r4, #1
 8002048:	d014      	beq.n	8002074 <_get_semihosting_exts+0x4c>
 800204a:	4620      	mov	r0, r4
 800204c:	f7ff fe4e 	bl	8001cec <findslot>
 8002050:	f04f 080c 	mov.w	r8, #12
 8002054:	4681      	mov	r9, r0
 8002056:	4640      	mov	r0, r8
 8002058:	4649      	mov	r1, r9
 800205a:	beab      	bkpt	0x00ab
 800205c:	4680      	mov	r8, r0
 800205e:	4640      	mov	r0, r8
 8002060:	f7ff fe6c 	bl	8001d3c <checkerror>
 8002064:	2803      	cmp	r0, #3
 8002066:	dd02      	ble.n	800206e <_get_semihosting_exts+0x46>
 8002068:	1ec3      	subs	r3, r0, #3
 800206a:	42ab      	cmp	r3, r5
 800206c:	dc07      	bgt.n	800207e <_get_semihosting_exts+0x56>
 800206e:	4620      	mov	r0, r4
 8002070:	f7ff ff0e 	bl	8001e90 <_close>
 8002074:	f04f 30ff 	mov.w	r0, #4294967295	@ 0xffffffff
 8002078:	b003      	add	sp, #12
 800207a:	e8bd 83f0 	ldmia.w	sp!, {r4, r5, r6, r7, r8, r9, pc}
 800207e:	2204      	movs	r2, #4
 8002080:	4620      	mov	r0, r4
 8002082:	eb0d 0102 	add.w	r1, sp, r2
 8002086:	f7ff fe6e 	bl	8001d66 <_read>
 800208a:	2803      	cmp	r0, #3
 800208c:	ddef      	ble.n	800206e <_get_semihosting_exts+0x46>
 800208e:	f89d 3004 	ldrb.w	r3, [sp, #4]
 8002092:	2b53      	cmp	r3, #83	@ 0x53
 8002094:	d1eb      	bne.n	800206e <_get_semihosting_exts+0x46>
 8002096:	f89d 3005 	ldrb.w	r3, [sp, #5]
 800209a:	2b48      	cmp	r3, #72	@ 0x48
 800209c:	d1e7      	bne.n	800206e <_get_semihosting_exts+0x46>
 800209e:	f89d 3006 	ldrb.w	r3, [sp, #6]
 80020a2:	2b46      	cmp	r3, #70	@ 0x46
 80020a4:	d1e3      	bne.n	800206e <_get_semihosting_exts+0x46>
 80020a6:	f89d 3007 	ldrb.w	r3, [sp, #7]
 80020aa:	2b42      	cmp	r3, #66	@ 0x42
 80020ac:	d1df      	bne.n	800206e <_get_semihosting_exts+0x46>
 80020ae:	2201      	movs	r2, #1
 80020b0:	4639      	mov	r1, r7
 80020b2:	4620      	mov	r0, r4
 80020b4:	f7ff fe71 	bl	8001d9a <_swilseek>
 80020b8:	2800      	cmp	r0, #0
 80020ba:	dbd8      	blt.n	800206e <_get_semihosting_exts+0x46>
 80020bc:	462a      	mov	r2, r5
 80020be:	4631      	mov	r1, r6
 80020c0:	4620      	mov	r0, r4
 80020c2:	f7ff fe50 	bl	8001d66 <_read>
 80020c6:	4605      	mov	r5, r0
 80020c8:	4620      	mov	r0, r4
 80020ca:	f7ff fee1 	bl	8001e90 <_close>
 80020ce:	4628      	mov	r0, r5
 80020d0:	f7ff fe34 	bl	8001d3c <checkerror>
 80020d4:	e7d0      	b.n	8002078 <_get_semihosting_exts+0x50>
 80020d6:	bf00      	nop
 80020d8:	080030bb 	.word	0x080030bb

080020dc <initialise_semihosting_exts>:
 80020dc:	b537      	push	{r0, r1, r2, r4, r5, lr}
 80020de:	2100      	movs	r1, #0
 80020e0:	2201      	movs	r2, #1
 80020e2:	4d09      	ldr	r5, [pc, #36]	@ (8002108 <initialise_semihosting_exts+0x2c>)
 80020e4:	4c09      	ldr	r4, [pc, #36]	@ (800210c <initialise_semihosting_exts+0x30>)
 80020e6:	a801      	add	r0, sp, #4
 80020e8:	6029      	str	r1, [r5, #0]
 80020ea:	6022      	str	r2, [r4, #0]
 80020ec:	f7ff ff9c 	bl	8002028 <_get_semihosting_exts>
 80020f0:	2800      	cmp	r0, #0
 80020f2:	dd07      	ble.n	8002104 <initialise_semihosting_exts+0x28>
 80020f4:	f89d 3004 	ldrb.w	r3, [sp, #4]
 80020f8:	f003 0201 	and.w	r2, r3, #1
 80020fc:	f003 0302 	and.w	r3, r3, #2
 8002100:	602a      	str	r2, [r5, #0]
 8002102:	6023      	str	r3, [r4, #0]
 8002104:	b003      	add	sp, #12
 8002106:	bd30      	pop	{r4, r5, pc}
 8002108:	20000010 	.word	0x20000010
 800210c:	2000000c 	.word	0x2000000c

08002110 <_has_ext_stdout_stderr>:
 8002110:	b510      	push	{r4, lr}
 8002112:	4c04      	ldr	r4, [pc, #16]	@ (8002124 <_has_ext_stdout_stderr+0x14>)
 8002114:	6823      	ldr	r3, [r4, #0]
 8002116:	2b00      	cmp	r3, #0
 8002118:	da01      	bge.n	800211e <_has_ext_stdout_stderr+0xe>
 800211a:	f7ff ffdf 	bl	80020dc <initialise_semihosting_exts>
 800211e:	6820      	ldr	r0, [r4, #0]
 8002120:	bd10      	pop	{r4, pc}
 8002122:	bf00      	nop
 8002124:	2000000c 	.word	0x2000000c

08002128 <initialise_monitor_handles>:
 8002128:	e92d 4ff0 	stmdb	sp!, {r4, r5, r6, r7, r8, r9, sl, fp, lr}
 800212c:	2303      	movs	r3, #3
 800212e:	2400      	movs	r4, #0
 8002130:	f8df 90a0 	ldr.w	r9, [pc, #160]	@ 80021d4 <initialise_monitor_handles+0xac>
 8002134:	b085      	sub	sp, #20
 8002136:	f8cd 9004 	str.w	r9, [sp, #4]
 800213a:	af01      	add	r7, sp, #4
 800213c:	9303      	str	r3, [sp, #12]
 800213e:	2501      	movs	r5, #1
 8002140:	9402      	str	r4, [sp, #8]
 8002142:	4628      	mov	r0, r5
 8002144:	4639      	mov	r1, r7
 8002146:	beab      	bkpt	0x00ab
 8002148:	4605      	mov	r5, r0
 800214a:	f04f 32ff 	mov.w	r2, #4294967295	@ 0xffffffff
 800214e:	f8df 8088 	ldr.w	r8, [pc, #136]	@ 80021d8 <initialise_monitor_handles+0xb0>
 8002152:	4623      	mov	r3, r4
 8002154:	4c21      	ldr	r4, [pc, #132]	@ (80021dc <initialise_monitor_handles+0xb4>)
 8002156:	f8c8 5000 	str.w	r5, [r8]
 800215a:	f844 2033 	str.w	r2, [r4, r3, lsl #3]
 800215e:	3301      	adds	r3, #1
 8002160:	2b14      	cmp	r3, #20
 8002162:	d1fa      	bne.n	800215a <initialise_monitor_handles+0x32>
 8002164:	f7ff ffd4 	bl	8002110 <_has_ext_stdout_stderr>
 8002168:	4d1d      	ldr	r5, [pc, #116]	@ (80021e0 <initialise_monitor_handles+0xb8>)
 800216a:	b1d0      	cbz	r0, 80021a2 <initialise_monitor_handles+0x7a>
 800216c:	f04f 0a03 	mov.w	sl, #3
 8002170:	2304      	movs	r3, #4
 8002172:	f8cd 9004 	str.w	r9, [sp, #4]
 8002176:	2601      	movs	r6, #1
 8002178:	f8cd a00c 	str.w	sl, [sp, #12]
 800217c:	9302      	str	r3, [sp, #8]
 800217e:	4630      	mov	r0, r6
 8002180:	4639      	mov	r1, r7
 8002182:	beab      	bkpt	0x00ab
 8002184:	4683      	mov	fp, r0
 8002186:	4b17      	ldr	r3, [pc, #92]	@ (80021e4 <initialise_monitor_handles+0xbc>)
 8002188:	f8cd 9004 	str.w	r9, [sp, #4]
 800218c:	f8c3 b000 	str.w	fp, [r3]
 8002190:	2308      	movs	r3, #8
 8002192:	f8cd a00c 	str.w	sl, [sp, #12]
 8002196:	9302      	str	r3, [sp, #8]
 8002198:	4630      	mov	r0, r6
 800219a:	4639      	mov	r1, r7
 800219c:	beab      	bkpt	0x00ab
 800219e:	4606      	mov	r6, r0
 80021a0:	602e      	str	r6, [r5, #0]
 80021a2:	2600      	movs	r6, #0
 80021a4:	682b      	ldr	r3, [r5, #0]
 80021a6:	6066      	str	r6, [r4, #4]
 80021a8:	3301      	adds	r3, #1
 80021aa:	bf02      	ittt	eq
 80021ac:	4b0d      	ldreq	r3, [pc, #52]	@ (80021e4 <initialise_monitor_handles+0xbc>)
 80021ae:	681b      	ldreq	r3, [r3, #0]
 80021b0:	602b      	streq	r3, [r5, #0]
 80021b2:	f8d8 3000 	ldr.w	r3, [r8]
 80021b6:	6023      	str	r3, [r4, #0]
 80021b8:	f7ff ffaa 	bl	8002110 <_has_ext_stdout_stderr>
 80021bc:	b130      	cbz	r0, 80021cc <initialise_monitor_handles+0xa4>
 80021be:	4b09      	ldr	r3, [pc, #36]	@ (80021e4 <initialise_monitor_handles+0xbc>)
 80021c0:	681b      	ldr	r3, [r3, #0]
 80021c2:	e9c4 3602 	strd	r3, r6, [r4, #8]
 80021c6:	682b      	ldr	r3, [r5, #0]
 80021c8:	e9c4 3604 	strd	r3, r6, [r4, #16]
 80021cc:	b005      	add	sp, #20
 80021ce:	e8bd 8ff0 	ldmia.w	sp!, {r4, r5, r6, r7, r8, r9, sl, fp, pc}
 80021d2:	bf00      	nop
 80021d4:	080030d1 	.word	0x080030d1
 80021d8:	20000170 	.word	0x20000170
 80021dc:	20000174 	.word	0x20000174
 80021e0:	20000168 	.word	0x20000168
 80021e4:	2000016c 	.word	0x2000016c

080021e8 <_isatty>:
 80021e8:	b570      	push	{r4, r5, r6, lr}
 80021ea:	f7ff fd7f 	bl	8001cec <findslot>
 80021ee:	2409      	movs	r4, #9
 80021f0:	4605      	mov	r5, r0
 80021f2:	b920      	cbnz	r0, 80021fe <_isatty+0x16>
 80021f4:	f000 f8f2 	bl	80023dc <__errno>
 80021f8:	6004      	str	r4, [r0, #0]
 80021fa:	2000      	movs	r0, #0
 80021fc:	bd70      	pop	{r4, r5, r6, pc}
 80021fe:	4620      	mov	r0, r4
 8002200:	4629      	mov	r1, r5
 8002202:	beab      	bkpt	0x00ab
 8002204:	4604      	mov	r4, r0
 8002206:	2c01      	cmp	r4, #1
 8002208:	4620      	mov	r0, r4
 800220a:	d0f7      	beq.n	80021fc <_isatty+0x14>
 800220c:	f000 f8e6 	bl	80023dc <__errno>
 8002210:	2513      	movs	r5, #19
 8002212:	4604      	mov	r4, r0
 8002214:	2600      	movs	r6, #0
 8002216:	4628      	mov	r0, r5
 8002218:	4631      	mov	r1, r6
 800221a:	beab      	bkpt	0x00ab
 800221c:	4605      	mov	r5, r0
 800221e:	6025      	str	r5, [r4, #0]
 8002220:	e7eb      	b.n	80021fa <_isatty+0x12>
	...

08002224 <std>:
 8002224:	2300      	movs	r3, #0
 8002226:	b510      	push	{r4, lr}
 8002228:	4604      	mov	r4, r0
 800222a:	e9c0 3300 	strd	r3, r3, [r0]
 800222e:	e9c0 3304 	strd	r3, r3, [r0, #16]
 8002232:	6083      	str	r3, [r0, #8]
 8002234:	8181      	strh	r1, [r0, #12]
 8002236:	6643      	str	r3, [r0, #100]	@ 0x64
 8002238:	81c2      	strh	r2, [r0, #14]
 800223a:	6183      	str	r3, [r0, #24]
 800223c:	4619      	mov	r1, r3
 800223e:	2208      	movs	r2, #8
 8002240:	305c      	adds	r0, #92	@ 0x5c
 8002242:	f000 f8c3 	bl	80023cc <memset>
 8002246:	4b0d      	ldr	r3, [pc, #52]	@ (800227c <std+0x58>)
 8002248:	6224      	str	r4, [r4, #32]
 800224a:	6263      	str	r3, [r4, #36]	@ 0x24
 800224c:	4b0c      	ldr	r3, [pc, #48]	@ (8002280 <std+0x5c>)
 800224e:	62a3      	str	r3, [r4, #40]	@ 0x28
 8002250:	4b0c      	ldr	r3, [pc, #48]	@ (8002284 <std+0x60>)
 8002252:	62e3      	str	r3, [r4, #44]	@ 0x2c
 8002254:	4b0c      	ldr	r3, [pc, #48]	@ (8002288 <std+0x64>)
 8002256:	6323      	str	r3, [r4, #48]	@ 0x30
 8002258:	4b0c      	ldr	r3, [pc, #48]	@ (800228c <std+0x68>)
 800225a:	429c      	cmp	r4, r3
 800225c:	d006      	beq.n	800226c <std+0x48>
 800225e:	f103 0268 	add.w	r2, r3, #104	@ 0x68
 8002262:	4294      	cmp	r4, r2
 8002264:	d002      	beq.n	800226c <std+0x48>
 8002266:	33d0      	adds	r3, #208	@ 0xd0
 8002268:	429c      	cmp	r4, r3
 800226a:	d105      	bne.n	8002278 <std+0x54>
 800226c:	f104 0058 	add.w	r0, r4, #88	@ 0x58
 8002270:	e8bd 4010 	ldmia.w	sp!, {r4, lr}
 8002274:	f000 b8dc 	b.w	8002430 <__retarget_lock_init_recursive>
 8002278:	bd10      	pop	{r4, pc}
 800227a:	bf00      	nop
 800227c:	08002c81 	.word	0x08002c81
 8002280:	08002ca3 	.word	0x08002ca3
 8002284:	08002cdb 	.word	0x08002cdb
 8002288:	08002cff 	.word	0x08002cff
 800228c:	20000214 	.word	0x20000214

08002290 <stdio_exit_handler>:
 8002290:	4a02      	ldr	r2, [pc, #8]	@ (800229c <stdio_exit_handler+0xc>)
 8002292:	4903      	ldr	r1, [pc, #12]	@ (80022a0 <stdio_exit_handler+0x10>)
 8002294:	4803      	ldr	r0, [pc, #12]	@ (80022a4 <stdio_exit_handler+0x14>)
 8002296:	f000 b869 	b.w	800236c <_fwalk_sglue>
 800229a:	bf00      	nop
 800229c:	20000014 	.word	0x20000014
 80022a0:	08002c19 	.word	0x08002c19
 80022a4:	20000024 	.word	0x20000024

080022a8 <cleanup_stdio>:
 80022a8:	6841      	ldr	r1, [r0, #4]
 80022aa:	4b0c      	ldr	r3, [pc, #48]	@ (80022dc <cleanup_stdio+0x34>)
 80022ac:	b510      	push	{r4, lr}
 80022ae:	4299      	cmp	r1, r3
 80022b0:	4604      	mov	r4, r0
 80022b2:	d001      	beq.n	80022b8 <cleanup_stdio+0x10>
 80022b4:	f000 fcb0 	bl	8002c18 <_fflush_r>
 80022b8:	68a1      	ldr	r1, [r4, #8]
 80022ba:	4b09      	ldr	r3, [pc, #36]	@ (80022e0 <cleanup_stdio+0x38>)
 80022bc:	4299      	cmp	r1, r3
 80022be:	d002      	beq.n	80022c6 <cleanup_stdio+0x1e>
 80022c0:	4620      	mov	r0, r4
 80022c2:	f000 fca9 	bl	8002c18 <_fflush_r>
 80022c6:	68e1      	ldr	r1, [r4, #12]
 80022c8:	4b06      	ldr	r3, [pc, #24]	@ (80022e4 <cleanup_stdio+0x3c>)
 80022ca:	4299      	cmp	r1, r3
 80022cc:	d004      	beq.n	80022d8 <cleanup_stdio+0x30>
 80022ce:	4620      	mov	r0, r4
 80022d0:	e8bd 4010 	ldmia.w	sp!, {r4, lr}
 80022d4:	f000 bca0 	b.w	8002c18 <_fflush_r>
 80022d8:	bd10      	pop	{r4, pc}
 80022da:	bf00      	nop
 80022dc:	20000214 	.word	0x20000214
 80022e0:	2000027c 	.word	0x2000027c
 80022e4:	200002e4 	.word	0x200002e4

080022e8 <global_stdio_init.part.0>:
 80022e8:	b510      	push	{r4, lr}
 80022ea:	4b0b      	ldr	r3, [pc, #44]	@ (8002318 <global_stdio_init.part.0+0x30>)
 80022ec:	4c0b      	ldr	r4, [pc, #44]	@ (800231c <global_stdio_init.part.0+0x34>)
 80022ee:	4a0c      	ldr	r2, [pc, #48]	@ (8002320 <global_stdio_init.part.0+0x38>)
 80022f0:	4620      	mov	r0, r4
 80022f2:	601a      	str	r2, [r3, #0]
 80022f4:	2104      	movs	r1, #4
 80022f6:	2200      	movs	r2, #0
 80022f8:	f7ff ff94 	bl	8002224 <std>
 80022fc:	f104 0068 	add.w	r0, r4, #104	@ 0x68
 8002300:	2201      	movs	r2, #1
 8002302:	2109      	movs	r1, #9
 8002304:	f7ff ff8e 	bl	8002224 <std>
 8002308:	f104 00d0 	add.w	r0, r4, #208	@ 0xd0
 800230c:	2202      	movs	r2, #2
 800230e:	e8bd 4010 	ldmia.w	sp!, {r4, lr}
 8002312:	2112      	movs	r1, #18
 8002314:	f7ff bf86 	b.w	8002224 <std>
 8002318:	2000034c 	.word	0x2000034c
 800231c:	20000214 	.word	0x20000214
 8002320:	08002291 	.word	0x08002291

08002324 <__sfp_lock_acquire>:
 8002324:	4801      	ldr	r0, [pc, #4]	@ (800232c <__sfp_lock_acquire+0x8>)
 8002326:	f000 b884 	b.w	8002432 <__retarget_lock_acquire_recursive>
 800232a:	bf00      	nop
 800232c:	20000351 	.word	0x20000351

08002330 <__sfp_lock_release>:
 8002330:	4801      	ldr	r0, [pc, #4]	@ (8002338 <__sfp_lock_release+0x8>)
 8002332:	f000 b87f 	b.w	8002434 <__retarget_lock_release_recursive>
 8002336:	bf00      	nop
 8002338:	20000351 	.word	0x20000351

0800233c <__sinit>:
 800233c:	b510      	push	{r4, lr}
 800233e:	4604      	mov	r4, r0
 8002340:	f7ff fff0 	bl	8002324 <__sfp_lock_acquire>
 8002344:	6a23      	ldr	r3, [r4, #32]
 8002346:	b11b      	cbz	r3, 8002350 <__sinit+0x14>
 8002348:	e8bd 4010 	ldmia.w	sp!, {r4, lr}
 800234c:	f7ff bff0 	b.w	8002330 <__sfp_lock_release>
 8002350:	4b04      	ldr	r3, [pc, #16]	@ (8002364 <__sinit+0x28>)
 8002352:	6223      	str	r3, [r4, #32]
 8002354:	4b04      	ldr	r3, [pc, #16]	@ (8002368 <__sinit+0x2c>)
 8002356:	681b      	ldr	r3, [r3, #0]
 8002358:	2b00      	cmp	r3, #0
 800235a:	d1f5      	bne.n	8002348 <__sinit+0xc>
 800235c:	f7ff ffc4 	bl	80022e8 <global_stdio_init.part.0>
 8002360:	e7f2      	b.n	8002348 <__sinit+0xc>
 8002362:	bf00      	nop
 8002364:	080022a9 	.word	0x080022a9
 8002368:	2000034c 	.word	0x2000034c

0800236c <_fwalk_sglue>:
 800236c:	e92d 43f8 	stmdb	sp!, {r3, r4, r5, r6, r7, r8, r9, lr}
 8002370:	4607      	mov	r7, r0
 8002372:	4688      	mov	r8, r1
 8002374:	4614      	mov	r4, r2
 8002376:	2600      	movs	r6, #0
 8002378:	e9d4 9501 	ldrd	r9, r5, [r4, #4]
 800237c:	f1b9 0901 	subs.w	r9, r9, #1
 8002380:	d505      	bpl.n	800238e <_fwalk_sglue+0x22>
 8002382:	6824      	ldr	r4, [r4, #0]
 8002384:	2c00      	cmp	r4, #0
 8002386:	d1f7      	bne.n	8002378 <_fwalk_sglue+0xc>
 8002388:	4630      	mov	r0, r6
 800238a:	e8bd 83f8 	ldmia.w	sp!, {r3, r4, r5, r6, r7, r8, r9, pc}
 800238e:	89ab      	ldrh	r3, [r5, #12]
 8002390:	2b01      	cmp	r3, #1
 8002392:	d907      	bls.n	80023a4 <_fwalk_sglue+0x38>
 8002394:	f9b5 300e 	ldrsh.w	r3, [r5, #14]
 8002398:	3301      	adds	r3, #1
 800239a:	d003      	beq.n	80023a4 <_fwalk_sglue+0x38>
 800239c:	4629      	mov	r1, r5
 800239e:	4638      	mov	r0, r7
 80023a0:	47c0      	blx	r8
 80023a2:	4306      	orrs	r6, r0
 80023a4:	3568      	adds	r5, #104	@ 0x68
 80023a6:	e7e9      	b.n	800237c <_fwalk_sglue+0x10>

080023a8 <iprintf>:
 80023a8:	b40f      	push	{r0, r1, r2, r3}
 80023aa:	b507      	push	{r0, r1, r2, lr}
 80023ac:	4906      	ldr	r1, [pc, #24]	@ (80023c8 <iprintf+0x20>)
 80023ae:	ab04      	add	r3, sp, #16
 80023b0:	6808      	ldr	r0, [r1, #0]
 80023b2:	f853 2b04 	ldr.w	r2, [r3], #4
 80023b6:	6881      	ldr	r1, [r0, #8]
 80023b8:	9301      	str	r3, [sp, #4]
 80023ba:	f000 f863 	bl	8002484 <_vfiprintf_r>
 80023be:	b003      	add	sp, #12
 80023c0:	f85d eb04 	ldr.w	lr, [sp], #4
 80023c4:	b004      	add	sp, #16
 80023c6:	4770      	bx	lr
 80023c8:	20000020 	.word	0x20000020

080023cc <memset>:
 80023cc:	4603      	mov	r3, r0
 80023ce:	4402      	add	r2, r0
 80023d0:	4293      	cmp	r3, r2
 80023d2:	d100      	bne.n	80023d6 <memset+0xa>
 80023d4:	4770      	bx	lr
 80023d6:	f803 1b01 	strb.w	r1, [r3], #1
 80023da:	e7f9      	b.n	80023d0 <memset+0x4>

080023dc <__errno>:
 80023dc:	4b01      	ldr	r3, [pc, #4]	@ (80023e4 <__errno+0x8>)
 80023de:	6818      	ldr	r0, [r3, #0]
 80023e0:	4770      	bx	lr
 80023e2:	bf00      	nop
 80023e4:	20000020 	.word	0x20000020

080023e8 <__libc_init_array>:
 80023e8:	b570      	push	{r4, r5, r6, lr}
 80023ea:	2600      	movs	r6, #0
 80023ec:	4d0c      	ldr	r5, [pc, #48]	@ (8002420 <__libc_init_array+0x38>)
 80023ee:	4c0d      	ldr	r4, [pc, #52]	@ (8002424 <__libc_init_array+0x3c>)
 80023f0:	1b64      	subs	r4, r4, r5
 80023f2:	10a4      	asrs	r4, r4, #2
 80023f4:	42a6      	cmp	r6, r4
 80023f6:	d109      	bne.n	800240c <__libc_init_array+0x24>
 80023f8:	f000 fe4a 	bl	8003090 <_init>
 80023fc:	2600      	movs	r6, #0
 80023fe:	4d0a      	ldr	r5, [pc, #40]	@ (8002428 <__libc_init_array+0x40>)
 8002400:	4c0a      	ldr	r4, [pc, #40]	@ (800242c <__libc_init_array+0x44>)
 8002402:	1b64      	subs	r4, r4, r5
 8002404:	10a4      	asrs	r4, r4, #2
 8002406:	42a6      	cmp	r6, r4
 8002408:	d105      	bne.n	8002416 <__libc_init_array+0x2e>
 800240a:	bd70      	pop	{r4, r5, r6, pc}
 800240c:	f855 3b04 	ldr.w	r3, [r5], #4
 8002410:	4798      	blx	r3
 8002412:	3601      	adds	r6, #1
 8002414:	e7ee      	b.n	80023f4 <__libc_init_array+0xc>
 8002416:	f855 3b04 	ldr.w	r3, [r5], #4
 800241a:	4798      	blx	r3
 800241c:	3601      	adds	r6, #1
 800241e:	e7f2      	b.n	8002406 <__libc_init_array+0x1e>
 8002420:	08003168 	.word	0x08003168
 8002424:	08003168 	.word	0x08003168
 8002428:	08003168 	.word	0x08003168
 800242c:	0800316c 	.word	0x0800316c

08002430 <__retarget_lock_init_recursive>:
 8002430:	4770      	bx	lr

08002432 <__retarget_lock_acquire_recursive>:
 8002432:	4770      	bx	lr

08002434 <__retarget_lock_release_recursive>:
 8002434:	4770      	bx	lr

08002436 <__sfputc_r>:
 8002436:	6893      	ldr	r3, [r2, #8]
 8002438:	b410      	push	{r4}
 800243a:	3b01      	subs	r3, #1
 800243c:	2b00      	cmp	r3, #0
 800243e:	6093      	str	r3, [r2, #8]
 8002440:	da07      	bge.n	8002452 <__sfputc_r+0x1c>
 8002442:	6994      	ldr	r4, [r2, #24]
 8002444:	42a3      	cmp	r3, r4
 8002446:	db01      	blt.n	800244c <__sfputc_r+0x16>
 8002448:	290a      	cmp	r1, #10
 800244a:	d102      	bne.n	8002452 <__sfputc_r+0x1c>
 800244c:	bc10      	pop	{r4}
 800244e:	f000 bc5a 	b.w	8002d06 <__swbuf_r>
 8002452:	6813      	ldr	r3, [r2, #0]
 8002454:	1c58      	adds	r0, r3, #1
 8002456:	6010      	str	r0, [r2, #0]
 8002458:	7019      	strb	r1, [r3, #0]
 800245a:	4608      	mov	r0, r1
 800245c:	bc10      	pop	{r4}
 800245e:	4770      	bx	lr

08002460 <__sfputs_r>:
 8002460:	b5f8      	push	{r3, r4, r5, r6, r7, lr}
 8002462:	4606      	mov	r6, r0
 8002464:	460f      	mov	r7, r1
 8002466:	4614      	mov	r4, r2
 8002468:	18d5      	adds	r5, r2, r3
 800246a:	42ac      	cmp	r4, r5
 800246c:	d101      	bne.n	8002472 <__sfputs_r+0x12>
 800246e:	2000      	movs	r0, #0
 8002470:	e007      	b.n	8002482 <__sfputs_r+0x22>
 8002472:	463a      	mov	r2, r7
 8002474:	4630      	mov	r0, r6
 8002476:	f814 1b01 	ldrb.w	r1, [r4], #1
 800247a:	f7ff ffdc 	bl	8002436 <__sfputc_r>
 800247e:	1c43      	adds	r3, r0, #1
 8002480:	d1f3      	bne.n	800246a <__sfputs_r+0xa>
 8002482:	bdf8      	pop	{r3, r4, r5, r6, r7, pc}

08002484 <_vfiprintf_r>:
 8002484:	e92d 4ff0 	stmdb	sp!, {r4, r5, r6, r7, r8, r9, sl, fp, lr}
 8002488:	460d      	mov	r5, r1
 800248a:	4614      	mov	r4, r2
 800248c:	4698      	mov	r8, r3
 800248e:	4606      	mov	r6, r0
 8002490:	b09d      	sub	sp, #116	@ 0x74
 8002492:	b118      	cbz	r0, 800249c <_vfiprintf_r+0x18>
 8002494:	6a03      	ldr	r3, [r0, #32]
 8002496:	b90b      	cbnz	r3, 800249c <_vfiprintf_r+0x18>
 8002498:	f7ff ff50 	bl	800233c <__sinit>
 800249c:	6e6b      	ldr	r3, [r5, #100]	@ 0x64
 800249e:	07d9      	lsls	r1, r3, #31
 80024a0:	d405      	bmi.n	80024ae <_vfiprintf_r+0x2a>
 80024a2:	89ab      	ldrh	r3, [r5, #12]
 80024a4:	059a      	lsls	r2, r3, #22
 80024a6:	d402      	bmi.n	80024ae <_vfiprintf_r+0x2a>
 80024a8:	6da8      	ldr	r0, [r5, #88]	@ 0x58
 80024aa:	f7ff ffc2 	bl	8002432 <__retarget_lock_acquire_recursive>
 80024ae:	89ab      	ldrh	r3, [r5, #12]
 80024b0:	071b      	lsls	r3, r3, #28
 80024b2:	d501      	bpl.n	80024b8 <_vfiprintf_r+0x34>
 80024b4:	692b      	ldr	r3, [r5, #16]
 80024b6:	b99b      	cbnz	r3, 80024e0 <_vfiprintf_r+0x5c>
 80024b8:	4629      	mov	r1, r5
 80024ba:	4630      	mov	r0, r6
 80024bc:	f000 fc62 	bl	8002d84 <__swsetup_r>
 80024c0:	b170      	cbz	r0, 80024e0 <_vfiprintf_r+0x5c>
 80024c2:	6e6b      	ldr	r3, [r5, #100]	@ 0x64
 80024c4:	07dc      	lsls	r4, r3, #31
 80024c6:	d504      	bpl.n	80024d2 <_vfiprintf_r+0x4e>
 80024c8:	f04f 30ff 	mov.w	r0, #4294967295	@ 0xffffffff
 80024cc:	b01d      	add	sp, #116	@ 0x74
 80024ce:	e8bd 8ff0 	ldmia.w	sp!, {r4, r5, r6, r7, r8, r9, sl, fp, pc}
 80024d2:	89ab      	ldrh	r3, [r5, #12]
 80024d4:	0598      	lsls	r0, r3, #22
 80024d6:	d4f7      	bmi.n	80024c8 <_vfiprintf_r+0x44>
 80024d8:	6da8      	ldr	r0, [r5, #88]	@ 0x58
 80024da:	f7ff ffab 	bl	8002434 <__retarget_lock_release_recursive>
 80024de:	e7f3      	b.n	80024c8 <_vfiprintf_r+0x44>
 80024e0:	2300      	movs	r3, #0
 80024e2:	9309      	str	r3, [sp, #36]	@ 0x24
 80024e4:	2320      	movs	r3, #32
 80024e6:	f88d 3029 	strb.w	r3, [sp, #41]	@ 0x29
 80024ea:	2330      	movs	r3, #48	@ 0x30
 80024ec:	f04f 0901 	mov.w	r9, #1
 80024f0:	f8cd 800c 	str.w	r8, [sp, #12]
 80024f4:	f8df 81a8 	ldr.w	r8, [pc, #424]	@ 80026a0 <_vfiprintf_r+0x21c>
 80024f8:	f88d 302a 	strb.w	r3, [sp, #42]	@ 0x2a
 80024fc:	4623      	mov	r3, r4
 80024fe:	469a      	mov	sl, r3
 8002500:	f813 2b01 	ldrb.w	r2, [r3], #1
 8002504:	b10a      	cbz	r2, 800250a <_vfiprintf_r+0x86>
 8002506:	2a25      	cmp	r2, #37	@ 0x25
 8002508:	d1f9      	bne.n	80024fe <_vfiprintf_r+0x7a>
 800250a:	ebba 0b04 	subs.w	fp, sl, r4
 800250e:	d00b      	beq.n	8002528 <_vfiprintf_r+0xa4>
 8002510:	465b      	mov	r3, fp
 8002512:	4622      	mov	r2, r4
 8002514:	4629      	mov	r1, r5
 8002516:	4630      	mov	r0, r6
 8002518:	f7ff ffa2 	bl	8002460 <__sfputs_r>
 800251c:	3001      	adds	r0, #1
 800251e:	f000 80a7 	beq.w	8002670 <_vfiprintf_r+0x1ec>
 8002522:	9a09      	ldr	r2, [sp, #36]	@ 0x24
 8002524:	445a      	add	r2, fp
 8002526:	9209      	str	r2, [sp, #36]	@ 0x24
 8002528:	f89a 3000 	ldrb.w	r3, [sl]
 800252c:	2b00      	cmp	r3, #0
 800252e:	f000 809f 	beq.w	8002670 <_vfiprintf_r+0x1ec>
 8002532:	2300      	movs	r3, #0
 8002534:	f04f 32ff 	mov.w	r2, #4294967295	@ 0xffffffff
 8002538:	e9cd 2305 	strd	r2, r3, [sp, #20]
 800253c:	f10a 0a01 	add.w	sl, sl, #1
 8002540:	9304      	str	r3, [sp, #16]
 8002542:	9307      	str	r3, [sp, #28]
 8002544:	f88d 3053 	strb.w	r3, [sp, #83]	@ 0x53
 8002548:	931a      	str	r3, [sp, #104]	@ 0x68
 800254a:	4654      	mov	r4, sl
 800254c:	2205      	movs	r2, #5
 800254e:	f814 1b01 	ldrb.w	r1, [r4], #1
 8002552:	4853      	ldr	r0, [pc, #332]	@ (80026a0 <_vfiprintf_r+0x21c>)
 8002554:	f000 fd46 	bl	8002fe4 <memchr>
 8002558:	9a04      	ldr	r2, [sp, #16]
 800255a:	b9d8      	cbnz	r0, 8002594 <_vfiprintf_r+0x110>
 800255c:	06d1      	lsls	r1, r2, #27
 800255e:	bf44      	itt	mi
 8002560:	2320      	movmi	r3, #32
 8002562:	f88d 3053 	strbmi.w	r3, [sp, #83]	@ 0x53
 8002566:	0713      	lsls	r3, r2, #28
 8002568:	bf44      	itt	mi
 800256a:	232b      	movmi	r3, #43	@ 0x2b
 800256c:	f88d 3053 	strbmi.w	r3, [sp, #83]	@ 0x53
 8002570:	f89a 3000 	ldrb.w	r3, [sl]
 8002574:	2b2a      	cmp	r3, #42	@ 0x2a
 8002576:	d015      	beq.n	80025a4 <_vfiprintf_r+0x120>
 8002578:	4654      	mov	r4, sl
 800257a:	2000      	movs	r0, #0
 800257c:	f04f 0c0a 	mov.w	ip, #10
 8002580:	9a07      	ldr	r2, [sp, #28]
 8002582:	4621      	mov	r1, r4
 8002584:	f811 3b01 	ldrb.w	r3, [r1], #1
 8002588:	3b30      	subs	r3, #48	@ 0x30
 800258a:	2b09      	cmp	r3, #9
 800258c:	d94b      	bls.n	8002626 <_vfiprintf_r+0x1a2>
 800258e:	b1b0      	cbz	r0, 80025be <_vfiprintf_r+0x13a>
 8002590:	9207      	str	r2, [sp, #28]
 8002592:	e014      	b.n	80025be <_vfiprintf_r+0x13a>
 8002594:	eba0 0308 	sub.w	r3, r0, r8
 8002598:	fa09 f303 	lsl.w	r3, r9, r3
 800259c:	4313      	orrs	r3, r2
 800259e:	46a2      	mov	sl, r4
 80025a0:	9304      	str	r3, [sp, #16]
 80025a2:	e7d2      	b.n	800254a <_vfiprintf_r+0xc6>
 80025a4:	9b03      	ldr	r3, [sp, #12]
 80025a6:	1d19      	adds	r1, r3, #4
 80025a8:	681b      	ldr	r3, [r3, #0]
 80025aa:	9103      	str	r1, [sp, #12]
 80025ac:	2b00      	cmp	r3, #0
 80025ae:	bfbb      	ittet	lt
 80025b0:	425b      	neglt	r3, r3
 80025b2:	f042 0202 	orrlt.w	r2, r2, #2
 80025b6:	9307      	strge	r3, [sp, #28]
 80025b8:	9307      	strlt	r3, [sp, #28]
 80025ba:	bfb8      	it	lt
 80025bc:	9204      	strlt	r2, [sp, #16]
 80025be:	7823      	ldrb	r3, [r4, #0]
 80025c0:	2b2e      	cmp	r3, #46	@ 0x2e
 80025c2:	d10a      	bne.n	80025da <_vfiprintf_r+0x156>
 80025c4:	7863      	ldrb	r3, [r4, #1]
 80025c6:	2b2a      	cmp	r3, #42	@ 0x2a
 80025c8:	d132      	bne.n	8002630 <_vfiprintf_r+0x1ac>
 80025ca:	9b03      	ldr	r3, [sp, #12]
 80025cc:	3402      	adds	r4, #2
 80025ce:	1d1a      	adds	r2, r3, #4
 80025d0:	681b      	ldr	r3, [r3, #0]
 80025d2:	9203      	str	r2, [sp, #12]
 80025d4:	ea43 73e3 	orr.w	r3, r3, r3, asr #31
 80025d8:	9305      	str	r3, [sp, #20]
 80025da:	f8df a0c8 	ldr.w	sl, [pc, #200]	@ 80026a4 <_vfiprintf_r+0x220>
 80025de:	2203      	movs	r2, #3
 80025e0:	4650      	mov	r0, sl
 80025e2:	7821      	ldrb	r1, [r4, #0]
 80025e4:	f000 fcfe 	bl	8002fe4 <memchr>
 80025e8:	b138      	cbz	r0, 80025fa <_vfiprintf_r+0x176>
 80025ea:	2240      	movs	r2, #64	@ 0x40
 80025ec:	9b04      	ldr	r3, [sp, #16]
 80025ee:	eba0 000a 	sub.w	r0, r0, sl
 80025f2:	4082      	lsls	r2, r0
 80025f4:	4313      	orrs	r3, r2
 80025f6:	3401      	adds	r4, #1
 80025f8:	9304      	str	r3, [sp, #16]
 80025fa:	f814 1b01 	ldrb.w	r1, [r4], #1
 80025fe:	2206      	movs	r2, #6
 8002600:	4829      	ldr	r0, [pc, #164]	@ (80026a8 <_vfiprintf_r+0x224>)
 8002602:	f88d 1028 	strb.w	r1, [sp, #40]	@ 0x28
 8002606:	f000 fced 	bl	8002fe4 <memchr>
 800260a:	2800      	cmp	r0, #0
 800260c:	d03f      	beq.n	800268e <_vfiprintf_r+0x20a>
 800260e:	4b27      	ldr	r3, [pc, #156]	@ (80026ac <_vfiprintf_r+0x228>)
 8002610:	bb1b      	cbnz	r3, 800265a <_vfiprintf_r+0x1d6>
 8002612:	9b03      	ldr	r3, [sp, #12]
 8002614:	3307      	adds	r3, #7
 8002616:	f023 0307 	bic.w	r3, r3, #7
 800261a:	3308      	adds	r3, #8
 800261c:	9303      	str	r3, [sp, #12]
 800261e:	9b09      	ldr	r3, [sp, #36]	@ 0x24
 8002620:	443b      	add	r3, r7
 8002622:	9309      	str	r3, [sp, #36]	@ 0x24
 8002624:	e76a      	b.n	80024fc <_vfiprintf_r+0x78>
 8002626:	460c      	mov	r4, r1
 8002628:	2001      	movs	r0, #1
 800262a:	fb0c 3202 	mla	r2, ip, r2, r3
 800262e:	e7a8      	b.n	8002582 <_vfiprintf_r+0xfe>
 8002630:	2300      	movs	r3, #0
 8002632:	f04f 0c0a 	mov.w	ip, #10
 8002636:	4619      	mov	r1, r3
 8002638:	3401      	adds	r4, #1
 800263a:	9305      	str	r3, [sp, #20]
 800263c:	4620      	mov	r0, r4
 800263e:	f810 2b01 	ldrb.w	r2, [r0], #1
 8002642:	3a30      	subs	r2, #48	@ 0x30
 8002644:	2a09      	cmp	r2, #9
 8002646:	d903      	bls.n	8002650 <_vfiprintf_r+0x1cc>
 8002648:	2b00      	cmp	r3, #0
 800264a:	d0c6      	beq.n	80025da <_vfiprintf_r+0x156>
 800264c:	9105      	str	r1, [sp, #20]
 800264e:	e7c4      	b.n	80025da <_vfiprintf_r+0x156>
 8002650:	4604      	mov	r4, r0
 8002652:	2301      	movs	r3, #1
 8002654:	fb0c 2101 	mla	r1, ip, r1, r2
 8002658:	e7f0      	b.n	800263c <_vfiprintf_r+0x1b8>
 800265a:	ab03      	add	r3, sp, #12
 800265c:	9300      	str	r3, [sp, #0]
 800265e:	462a      	mov	r2, r5
 8002660:	4630      	mov	r0, r6
 8002662:	4b13      	ldr	r3, [pc, #76]	@ (80026b0 <_vfiprintf_r+0x22c>)
 8002664:	a904      	add	r1, sp, #16
 8002666:	f3af 8000 	nop.w
 800266a:	4607      	mov	r7, r0
 800266c:	1c78      	adds	r0, r7, #1
 800266e:	d1d6      	bne.n	800261e <_vfiprintf_r+0x19a>
 8002670:	6e6b      	ldr	r3, [r5, #100]	@ 0x64
 8002672:	07d9      	lsls	r1, r3, #31
 8002674:	d405      	bmi.n	8002682 <_vfiprintf_r+0x1fe>
 8002676:	89ab      	ldrh	r3, [r5, #12]
 8002678:	059a      	lsls	r2, r3, #22
 800267a:	d402      	bmi.n	8002682 <_vfiprintf_r+0x1fe>
 800267c:	6da8      	ldr	r0, [r5, #88]	@ 0x58
 800267e:	f7ff fed9 	bl	8002434 <__retarget_lock_release_recursive>
 8002682:	89ab      	ldrh	r3, [r5, #12]
 8002684:	065b      	lsls	r3, r3, #25
 8002686:	f53f af1f 	bmi.w	80024c8 <_vfiprintf_r+0x44>
 800268a:	9809      	ldr	r0, [sp, #36]	@ 0x24
 800268c:	e71e      	b.n	80024cc <_vfiprintf_r+0x48>
 800268e:	ab03      	add	r3, sp, #12
 8002690:	9300      	str	r3, [sp, #0]
 8002692:	462a      	mov	r2, r5
 8002694:	4630      	mov	r0, r6
 8002696:	4b06      	ldr	r3, [pc, #24]	@ (80026b0 <_vfiprintf_r+0x22c>)
 8002698:	a904      	add	r1, sp, #16
 800269a:	f000 f91f 	bl	80028dc <_printf_i>
 800269e:	e7e4      	b.n	800266a <_vfiprintf_r+0x1e6>
 80026a0:	080030d5 	.word	0x080030d5
 80026a4:	080030db 	.word	0x080030db
 80026a8:	080030df 	.word	0x080030df
 80026ac:	00000000 	.word	0x00000000
 80026b0:	08002461 	.word	0x08002461

080026b4 <sbrk_aligned>:
 80026b4:	b570      	push	{r4, r5, r6, lr}
 80026b6:	4e0f      	ldr	r6, [pc, #60]	@ (80026f4 <sbrk_aligned+0x40>)
 80026b8:	460c      	mov	r4, r1
 80026ba:	6831      	ldr	r1, [r6, #0]
 80026bc:	4605      	mov	r5, r0
 80026be:	b911      	cbnz	r1, 80026c6 <sbrk_aligned+0x12>
 80026c0:	f000 fc4c 	bl	8002f5c <_sbrk_r>
 80026c4:	6030      	str	r0, [r6, #0]
 80026c6:	4621      	mov	r1, r4
 80026c8:	4628      	mov	r0, r5
 80026ca:	f000 fc47 	bl	8002f5c <_sbrk_r>
 80026ce:	1c43      	adds	r3, r0, #1
 80026d0:	d103      	bne.n	80026da <sbrk_aligned+0x26>
 80026d2:	f04f 34ff 	mov.w	r4, #4294967295	@ 0xffffffff
 80026d6:	4620      	mov	r0, r4
 80026d8:	bd70      	pop	{r4, r5, r6, pc}
 80026da:	1cc4      	adds	r4, r0, #3
 80026dc:	f024 0403 	bic.w	r4, r4, #3
 80026e0:	42a0      	cmp	r0, r4
 80026e2:	d0f8      	beq.n	80026d6 <sbrk_aligned+0x22>
 80026e4:	1a21      	subs	r1, r4, r0
 80026e6:	4628      	mov	r0, r5
 80026e8:	f000 fc38 	bl	8002f5c <_sbrk_r>
 80026ec:	3001      	adds	r0, #1
 80026ee:	d1f2      	bne.n	80026d6 <sbrk_aligned+0x22>
 80026f0:	e7ef      	b.n	80026d2 <sbrk_aligned+0x1e>
 80026f2:	bf00      	nop
 80026f4:	20000354 	.word	0x20000354

080026f8 <_malloc_r>:
 80026f8:	e92d 43f8 	stmdb	sp!, {r3, r4, r5, r6, r7, r8, r9, lr}
 80026fc:	1ccd      	adds	r5, r1, #3
 80026fe:	f025 0503 	bic.w	r5, r5, #3
 8002702:	3508      	adds	r5, #8
 8002704:	2d0c      	cmp	r5, #12
 8002706:	bf38      	it	cc
 8002708:	250c      	movcc	r5, #12
 800270a:	2d00      	cmp	r5, #0
 800270c:	4606      	mov	r6, r0
 800270e:	db01      	blt.n	8002714 <_malloc_r+0x1c>
 8002710:	42a9      	cmp	r1, r5
 8002712:	d904      	bls.n	800271e <_malloc_r+0x26>
 8002714:	230c      	movs	r3, #12
 8002716:	6033      	str	r3, [r6, #0]
 8002718:	2000      	movs	r0, #0
 800271a:	e8bd 83f8 	ldmia.w	sp!, {r3, r4, r5, r6, r7, r8, r9, pc}
 800271e:	f8df 80d4 	ldr.w	r8, [pc, #212]	@ 80027f4 <_malloc_r+0xfc>
 8002722:	f000 faa1 	bl	8002c68 <__malloc_lock>
 8002726:	f8d8 3000 	ldr.w	r3, [r8]
 800272a:	461c      	mov	r4, r3
 800272c:	bb44      	cbnz	r4, 8002780 <_malloc_r+0x88>
 800272e:	4629      	mov	r1, r5
 8002730:	4630      	mov	r0, r6
 8002732:	f7ff ffbf 	bl	80026b4 <sbrk_aligned>
 8002736:	1c43      	adds	r3, r0, #1
 8002738:	4604      	mov	r4, r0
 800273a:	d158      	bne.n	80027ee <_malloc_r+0xf6>
 800273c:	f8d8 4000 	ldr.w	r4, [r8]
 8002740:	4627      	mov	r7, r4
 8002742:	2f00      	cmp	r7, #0
 8002744:	d143      	bne.n	80027ce <_malloc_r+0xd6>
 8002746:	2c00      	cmp	r4, #0
 8002748:	d04b      	beq.n	80027e2 <_malloc_r+0xea>
 800274a:	6823      	ldr	r3, [r4, #0]
 800274c:	4639      	mov	r1, r7
 800274e:	4630      	mov	r0, r6
 8002750:	eb04 0903 	add.w	r9, r4, r3
 8002754:	f000 fc02 	bl	8002f5c <_sbrk_r>
 8002758:	4581      	cmp	r9, r0
 800275a:	d142      	bne.n	80027e2 <_malloc_r+0xea>
 800275c:	6821      	ldr	r1, [r4, #0]
 800275e:	4630      	mov	r0, r6
 8002760:	1a6d      	subs	r5, r5, r1
 8002762:	4629      	mov	r1, r5
 8002764:	f7ff ffa6 	bl	80026b4 <sbrk_aligned>
 8002768:	3001      	adds	r0, #1
 800276a:	d03a      	beq.n	80027e2 <_malloc_r+0xea>
 800276c:	6823      	ldr	r3, [r4, #0]
 800276e:	442b      	add	r3, r5
 8002770:	6023      	str	r3, [r4, #0]
 8002772:	f8d8 3000 	ldr.w	r3, [r8]
 8002776:	685a      	ldr	r2, [r3, #4]
 8002778:	bb62      	cbnz	r2, 80027d4 <_malloc_r+0xdc>
 800277a:	f8c8 7000 	str.w	r7, [r8]
 800277e:	e00f      	b.n	80027a0 <_malloc_r+0xa8>
 8002780:	6822      	ldr	r2, [r4, #0]
 8002782:	1b52      	subs	r2, r2, r5
 8002784:	d420      	bmi.n	80027c8 <_malloc_r+0xd0>
 8002786:	2a0b      	cmp	r2, #11
 8002788:	d917      	bls.n	80027ba <_malloc_r+0xc2>
 800278a:	1961      	adds	r1, r4, r5
 800278c:	42a3      	cmp	r3, r4
 800278e:	6025      	str	r5, [r4, #0]
 8002790:	bf18      	it	ne
 8002792:	6059      	strne	r1, [r3, #4]
 8002794:	6863      	ldr	r3, [r4, #4]
 8002796:	bf08      	it	eq
 8002798:	f8c8 1000 	streq.w	r1, [r8]
 800279c:	5162      	str	r2, [r4, r5]
 800279e:	604b      	str	r3, [r1, #4]
 80027a0:	4630      	mov	r0, r6
 80027a2:	f000 fa67 	bl	8002c74 <__malloc_unlock>
 80027a6:	f104 000b 	add.w	r0, r4, #11
 80027aa:	1d23      	adds	r3, r4, #4
 80027ac:	f020 0007 	bic.w	r0, r0, #7
 80027b0:	1ac2      	subs	r2, r0, r3
 80027b2:	bf1c      	itt	ne
 80027b4:	1a1b      	subne	r3, r3, r0
 80027b6:	50a3      	strne	r3, [r4, r2]
 80027b8:	e7af      	b.n	800271a <_malloc_r+0x22>
 80027ba:	6862      	ldr	r2, [r4, #4]
 80027bc:	42a3      	cmp	r3, r4
 80027be:	bf0c      	ite	eq
 80027c0:	f8c8 2000 	streq.w	r2, [r8]
 80027c4:	605a      	strne	r2, [r3, #4]
 80027c6:	e7eb      	b.n	80027a0 <_malloc_r+0xa8>
 80027c8:	4623      	mov	r3, r4
 80027ca:	6864      	ldr	r4, [r4, #4]
 80027cc:	e7ae      	b.n	800272c <_malloc_r+0x34>
 80027ce:	463c      	mov	r4, r7
 80027d0:	687f      	ldr	r7, [r7, #4]
 80027d2:	e7b6      	b.n	8002742 <_malloc_r+0x4a>
 80027d4:	461a      	mov	r2, r3
 80027d6:	685b      	ldr	r3, [r3, #4]
 80027d8:	42a3      	cmp	r3, r4
 80027da:	d1fb      	bne.n	80027d4 <_malloc_r+0xdc>
 80027dc:	2300      	movs	r3, #0
 80027de:	6053      	str	r3, [r2, #4]
 80027e0:	e7de      	b.n	80027a0 <_malloc_r+0xa8>
 80027e2:	230c      	movs	r3, #12
 80027e4:	4630      	mov	r0, r6
 80027e6:	6033      	str	r3, [r6, #0]
 80027e8:	f000 fa44 	bl	8002c74 <__malloc_unlock>
 80027ec:	e794      	b.n	8002718 <_malloc_r+0x20>
 80027ee:	6005      	str	r5, [r0, #0]
 80027f0:	e7d6      	b.n	80027a0 <_malloc_r+0xa8>
 80027f2:	bf00      	nop
 80027f4:	20000358 	.word	0x20000358

080027f8 <_printf_common>:
 80027f8:	e92d 47f0 	stmdb	sp!, {r4, r5, r6, r7, r8, r9, sl, lr}
 80027fc:	4616      	mov	r6, r2
 80027fe:	4698      	mov	r8, r3
 8002800:	688a      	ldr	r2, [r1, #8]
 8002802:	690b      	ldr	r3, [r1, #16]
 8002804:	4607      	mov	r7, r0
 8002806:	4293      	cmp	r3, r2
 8002808:	bfb8      	it	lt
 800280a:	4613      	movlt	r3, r2
 800280c:	6033      	str	r3, [r6, #0]
 800280e:	f891 2043 	ldrb.w	r2, [r1, #67]	@ 0x43
 8002812:	460c      	mov	r4, r1
 8002814:	f8dd 9020 	ldr.w	r9, [sp, #32]
 8002818:	b10a      	cbz	r2, 800281e <_printf_common+0x26>
 800281a:	3301      	adds	r3, #1
 800281c:	6033      	str	r3, [r6, #0]
 800281e:	6823      	ldr	r3, [r4, #0]
 8002820:	0699      	lsls	r1, r3, #26
 8002822:	bf42      	ittt	mi
 8002824:	6833      	ldrmi	r3, [r6, #0]
 8002826:	3302      	addmi	r3, #2
 8002828:	6033      	strmi	r3, [r6, #0]
 800282a:	6825      	ldr	r5, [r4, #0]
 800282c:	f015 0506 	ands.w	r5, r5, #6
 8002830:	d106      	bne.n	8002840 <_printf_common+0x48>
 8002832:	f104 0a19 	add.w	sl, r4, #25
 8002836:	68e3      	ldr	r3, [r4, #12]
 8002838:	6832      	ldr	r2, [r6, #0]
 800283a:	1a9b      	subs	r3, r3, r2
 800283c:	42ab      	cmp	r3, r5
 800283e:	dc2b      	bgt.n	8002898 <_printf_common+0xa0>
 8002840:	f894 3043 	ldrb.w	r3, [r4, #67]	@ 0x43
 8002844:	6822      	ldr	r2, [r4, #0]
 8002846:	3b00      	subs	r3, #0
 8002848:	bf18      	it	ne
 800284a:	2301      	movne	r3, #1
 800284c:	0692      	lsls	r2, r2, #26
 800284e:	d430      	bmi.n	80028b2 <_printf_common+0xba>
 8002850:	4641      	mov	r1, r8
 8002852:	4638      	mov	r0, r7
 8002854:	f104 0243 	add.w	r2, r4, #67	@ 0x43
 8002858:	47c8      	blx	r9
 800285a:	3001      	adds	r0, #1
 800285c:	d023      	beq.n	80028a6 <_printf_common+0xae>
 800285e:	6823      	ldr	r3, [r4, #0]
 8002860:	6922      	ldr	r2, [r4, #16]
 8002862:	f003 0306 	and.w	r3, r3, #6
 8002866:	2b04      	cmp	r3, #4
 8002868:	bf14      	ite	ne
 800286a:	2500      	movne	r5, #0
 800286c:	6833      	ldreq	r3, [r6, #0]
 800286e:	f04f 0600 	mov.w	r6, #0
 8002872:	bf08      	it	eq
 8002874:	68e5      	ldreq	r5, [r4, #12]
 8002876:	f104 041a 	add.w	r4, r4, #26
 800287a:	bf08      	it	eq
 800287c:	1aed      	subeq	r5, r5, r3
 800287e:	f854 3c12 	ldr.w	r3, [r4, #-18]
 8002882:	bf08      	it	eq
 8002884:	ea25 75e5 	biceq.w	r5, r5, r5, asr #31
 8002888:	4293      	cmp	r3, r2
 800288a:	bfc4      	itt	gt
 800288c:	1a9b      	subgt	r3, r3, r2
 800288e:	18ed      	addgt	r5, r5, r3
 8002890:	42b5      	cmp	r5, r6
 8002892:	d11a      	bne.n	80028ca <_printf_common+0xd2>
 8002894:	2000      	movs	r0, #0
 8002896:	e008      	b.n	80028aa <_printf_common+0xb2>
 8002898:	2301      	movs	r3, #1
 800289a:	4652      	mov	r2, sl
 800289c:	4641      	mov	r1, r8
 800289e:	4638      	mov	r0, r7
 80028a0:	47c8      	blx	r9
 80028a2:	3001      	adds	r0, #1
 80028a4:	d103      	bne.n	80028ae <_printf_common+0xb6>
 80028a6:	f04f 30ff 	mov.w	r0, #4294967295	@ 0xffffffff
 80028aa:	e8bd 87f0 	ldmia.w	sp!, {r4, r5, r6, r7, r8, r9, sl, pc}
 80028ae:	3501      	adds	r5, #1
 80028b0:	e7c1      	b.n	8002836 <_printf_common+0x3e>
 80028b2:	2030      	movs	r0, #48	@ 0x30
 80028b4:	18e1      	adds	r1, r4, r3
 80028b6:	f881 0043 	strb.w	r0, [r1, #67]	@ 0x43
 80028ba:	1c5a      	adds	r2, r3, #1
 80028bc:	f894 1045 	ldrb.w	r1, [r4, #69]	@ 0x45
 80028c0:	4422      	add	r2, r4
 80028c2:	3302      	adds	r3, #2
 80028c4:	f882 1043 	strb.w	r1, [r2, #67]	@ 0x43
 80028c8:	e7c2      	b.n	8002850 <_printf_common+0x58>
 80028ca:	2301      	movs	r3, #1
 80028cc:	4622      	mov	r2, r4
 80028ce:	4641      	mov	r1, r8
 80028d0:	4638      	mov	r0, r7
 80028d2:	47c8      	blx	r9
 80028d4:	3001      	adds	r0, #1
 80028d6:	d0e6      	beq.n	80028a6 <_printf_common+0xae>
 80028d8:	3601      	adds	r6, #1
 80028da:	e7d9      	b.n	8002890 <_printf_common+0x98>

080028dc <_printf_i>:
 80028dc:	e92d 47ff 	stmdb	sp!, {r0, r1, r2, r3, r4, r5, r6, r7, r8, r9, sl, lr}
 80028e0:	7e0f      	ldrb	r7, [r1, #24]
 80028e2:	4691      	mov	r9, r2
 80028e4:	2f78      	cmp	r7, #120	@ 0x78
 80028e6:	4680      	mov	r8, r0
 80028e8:	460c      	mov	r4, r1
 80028ea:	469a      	mov	sl, r3
 80028ec:	9e0c      	ldr	r6, [sp, #48]	@ 0x30
 80028ee:	f101 0243 	add.w	r2, r1, #67	@ 0x43
 80028f2:	d807      	bhi.n	8002904 <_printf_i+0x28>
 80028f4:	2f62      	cmp	r7, #98	@ 0x62
 80028f6:	d80a      	bhi.n	800290e <_printf_i+0x32>
 80028f8:	2f00      	cmp	r7, #0
 80028fa:	f000 80d1 	beq.w	8002aa0 <_printf_i+0x1c4>
 80028fe:	2f58      	cmp	r7, #88	@ 0x58
 8002900:	f000 80b8 	beq.w	8002a74 <_printf_i+0x198>
 8002904:	f104 0642 	add.w	r6, r4, #66	@ 0x42
 8002908:	f884 7042 	strb.w	r7, [r4, #66]	@ 0x42
 800290c:	e03a      	b.n	8002984 <_printf_i+0xa8>
 800290e:	f1a7 0363 	sub.w	r3, r7, #99	@ 0x63
 8002912:	2b15      	cmp	r3, #21
 8002914:	d8f6      	bhi.n	8002904 <_printf_i+0x28>
 8002916:	a101      	add	r1, pc, #4	@ (adr r1, 800291c <_printf_i+0x40>)
 8002918:	f851 f023 	ldr.w	pc, [r1, r3, lsl #2]
 800291c:	08002975 	.word	0x08002975
 8002920:	08002989 	.word	0x08002989
 8002924:	08002905 	.word	0x08002905
 8002928:	08002905 	.word	0x08002905
 800292c:	08002905 	.word	0x08002905
 8002930:	08002905 	.word	0x08002905
 8002934:	08002989 	.word	0x08002989
 8002938:	08002905 	.word	0x08002905
 800293c:	08002905 	.word	0x08002905
 8002940:	08002905 	.word	0x08002905
 8002944:	08002905 	.word	0x08002905
 8002948:	08002a87 	.word	0x08002a87
 800294c:	080029b3 	.word	0x080029b3
 8002950:	08002a41 	.word	0x08002a41
 8002954:	08002905 	.word	0x08002905
 8002958:	08002905 	.word	0x08002905
 800295c:	08002aa9 	.word	0x08002aa9
 8002960:	08002905 	.word	0x08002905
 8002964:	080029b3 	.word	0x080029b3
 8002968:	08002905 	.word	0x08002905
 800296c:	08002905 	.word	0x08002905
 8002970:	08002a49 	.word	0x08002a49
 8002974:	6833      	ldr	r3, [r6, #0]
 8002976:	1d1a      	adds	r2, r3, #4
 8002978:	681b      	ldr	r3, [r3, #0]
 800297a:	6032      	str	r2, [r6, #0]
 800297c:	f104 0642 	add.w	r6, r4, #66	@ 0x42
 8002980:	f884 3042 	strb.w	r3, [r4, #66]	@ 0x42
 8002984:	2301      	movs	r3, #1
 8002986:	e09c      	b.n	8002ac2 <_printf_i+0x1e6>
 8002988:	6833      	ldr	r3, [r6, #0]
 800298a:	6820      	ldr	r0, [r4, #0]
 800298c:	1d19      	adds	r1, r3, #4
 800298e:	6031      	str	r1, [r6, #0]
 8002990:	0606      	lsls	r6, r0, #24
 8002992:	d501      	bpl.n	8002998 <_printf_i+0xbc>
 8002994:	681d      	ldr	r5, [r3, #0]
 8002996:	e003      	b.n	80029a0 <_printf_i+0xc4>
 8002998:	0645      	lsls	r5, r0, #25
 800299a:	d5fb      	bpl.n	8002994 <_printf_i+0xb8>
 800299c:	f9b3 5000 	ldrsh.w	r5, [r3]
 80029a0:	2d00      	cmp	r5, #0
 80029a2:	da03      	bge.n	80029ac <_printf_i+0xd0>
 80029a4:	232d      	movs	r3, #45	@ 0x2d
 80029a6:	426d      	negs	r5, r5
 80029a8:	f884 3043 	strb.w	r3, [r4, #67]	@ 0x43
 80029ac:	230a      	movs	r3, #10
 80029ae:	4858      	ldr	r0, [pc, #352]	@ (8002b10 <_printf_i+0x234>)
 80029b0:	e011      	b.n	80029d6 <_printf_i+0xfa>
 80029b2:	6821      	ldr	r1, [r4, #0]
 80029b4:	6833      	ldr	r3, [r6, #0]
 80029b6:	0608      	lsls	r0, r1, #24
 80029b8:	f853 5b04 	ldr.w	r5, [r3], #4
 80029bc:	d402      	bmi.n	80029c4 <_printf_i+0xe8>
 80029be:	0649      	lsls	r1, r1, #25
 80029c0:	bf48      	it	mi
 80029c2:	b2ad      	uxthmi	r5, r5
 80029c4:	2f6f      	cmp	r7, #111	@ 0x6f
 80029c6:	6033      	str	r3, [r6, #0]
 80029c8:	bf14      	ite	ne
 80029ca:	230a      	movne	r3, #10
 80029cc:	2308      	moveq	r3, #8
 80029ce:	4850      	ldr	r0, [pc, #320]	@ (8002b10 <_printf_i+0x234>)
 80029d0:	2100      	movs	r1, #0
 80029d2:	f884 1043 	strb.w	r1, [r4, #67]	@ 0x43
 80029d6:	6866      	ldr	r6, [r4, #4]
 80029d8:	2e00      	cmp	r6, #0
 80029da:	60a6      	str	r6, [r4, #8]
 80029dc:	db05      	blt.n	80029ea <_printf_i+0x10e>
 80029de:	6821      	ldr	r1, [r4, #0]
 80029e0:	432e      	orrs	r6, r5
 80029e2:	f021 0104 	bic.w	r1, r1, #4
 80029e6:	6021      	str	r1, [r4, #0]
 80029e8:	d04b      	beq.n	8002a82 <_printf_i+0x1a6>
 80029ea:	4616      	mov	r6, r2
 80029ec:	fbb5 f1f3 	udiv	r1, r5, r3
 80029f0:	fb03 5711 	mls	r7, r3, r1, r5
 80029f4:	5dc7      	ldrb	r7, [r0, r7]
 80029f6:	f806 7d01 	strb.w	r7, [r6, #-1]!
 80029fa:	462f      	mov	r7, r5
 80029fc:	42bb      	cmp	r3, r7
 80029fe:	460d      	mov	r5, r1
 8002a00:	d9f4      	bls.n	80029ec <_printf_i+0x110>
 8002a02:	2b08      	cmp	r3, #8
 8002a04:	d10b      	bne.n	8002a1e <_printf_i+0x142>
 8002a06:	6823      	ldr	r3, [r4, #0]
 8002a08:	07df      	lsls	r7, r3, #31
 8002a0a:	d508      	bpl.n	8002a1e <_printf_i+0x142>
 8002a0c:	6923      	ldr	r3, [r4, #16]
 8002a0e:	6861      	ldr	r1, [r4, #4]
 8002a10:	4299      	cmp	r1, r3
 8002a12:	bfde      	ittt	le
 8002a14:	2330      	movle	r3, #48	@ 0x30
 8002a16:	f806 3c01 	strble.w	r3, [r6, #-1]
 8002a1a:	f106 36ff 	addle.w	r6, r6, #4294967295	@ 0xffffffff
 8002a1e:	1b92      	subs	r2, r2, r6
 8002a20:	6122      	str	r2, [r4, #16]
 8002a22:	464b      	mov	r3, r9
 8002a24:	4621      	mov	r1, r4
 8002a26:	4640      	mov	r0, r8
 8002a28:	f8cd a000 	str.w	sl, [sp]
 8002a2c:	aa03      	add	r2, sp, #12
 8002a2e:	f7ff fee3 	bl	80027f8 <_printf_common>
 8002a32:	3001      	adds	r0, #1
 8002a34:	d14a      	bne.n	8002acc <_printf_i+0x1f0>
 8002a36:	f04f 30ff 	mov.w	r0, #4294967295	@ 0xffffffff
 8002a3a:	b004      	add	sp, #16
 8002a3c:	e8bd 87f0 	ldmia.w	sp!, {r4, r5, r6, r7, r8, r9, sl, pc}
 8002a40:	6823      	ldr	r3, [r4, #0]
 8002a42:	f043 0320 	orr.w	r3, r3, #32
 8002a46:	6023      	str	r3, [r4, #0]
 8002a48:	2778      	movs	r7, #120	@ 0x78
 8002a4a:	4832      	ldr	r0, [pc, #200]	@ (8002b14 <_printf_i+0x238>)
 8002a4c:	f884 7045 	strb.w	r7, [r4, #69]	@ 0x45
 8002a50:	6823      	ldr	r3, [r4, #0]
 8002a52:	6831      	ldr	r1, [r6, #0]
 8002a54:	061f      	lsls	r7, r3, #24
 8002a56:	f851 5b04 	ldr.w	r5, [r1], #4
 8002a5a:	d402      	bmi.n	8002a62 <_printf_i+0x186>
 8002a5c:	065f      	lsls	r7, r3, #25
 8002a5e:	bf48      	it	mi
 8002a60:	b2ad      	uxthmi	r5, r5
 8002a62:	6031      	str	r1, [r6, #0]
 8002a64:	07d9      	lsls	r1, r3, #31
 8002a66:	bf44      	itt	mi
 8002a68:	f043 0320 	orrmi.w	r3, r3, #32
 8002a6c:	6023      	strmi	r3, [r4, #0]
 8002a6e:	b11d      	cbz	r5, 8002a78 <_printf_i+0x19c>
 8002a70:	2310      	movs	r3, #16
 8002a72:	e7ad      	b.n	80029d0 <_printf_i+0xf4>
 8002a74:	4826      	ldr	r0, [pc, #152]	@ (8002b10 <_printf_i+0x234>)
 8002a76:	e7e9      	b.n	8002a4c <_printf_i+0x170>
 8002a78:	6823      	ldr	r3, [r4, #0]
 8002a7a:	f023 0320 	bic.w	r3, r3, #32
 8002a7e:	6023      	str	r3, [r4, #0]
 8002a80:	e7f6      	b.n	8002a70 <_printf_i+0x194>
 8002a82:	4616      	mov	r6, r2
 8002a84:	e7bd      	b.n	8002a02 <_printf_i+0x126>
 8002a86:	6833      	ldr	r3, [r6, #0]
 8002a88:	6825      	ldr	r5, [r4, #0]
 8002a8a:	1d18      	adds	r0, r3, #4
 8002a8c:	6961      	ldr	r1, [r4, #20]
 8002a8e:	6030      	str	r0, [r6, #0]
 8002a90:	062e      	lsls	r6, r5, #24
 8002a92:	681b      	ldr	r3, [r3, #0]
 8002a94:	d501      	bpl.n	8002a9a <_printf_i+0x1be>
 8002a96:	6019      	str	r1, [r3, #0]
 8002a98:	e002      	b.n	8002aa0 <_printf_i+0x1c4>
 8002a9a:	0668      	lsls	r0, r5, #25
 8002a9c:	d5fb      	bpl.n	8002a96 <_printf_i+0x1ba>
 8002a9e:	8019      	strh	r1, [r3, #0]
 8002aa0:	2300      	movs	r3, #0
 8002aa2:	4616      	mov	r6, r2
 8002aa4:	6123      	str	r3, [r4, #16]
 8002aa6:	e7bc      	b.n	8002a22 <_printf_i+0x146>
 8002aa8:	6833      	ldr	r3, [r6, #0]
 8002aaa:	2100      	movs	r1, #0
 8002aac:	1d1a      	adds	r2, r3, #4
 8002aae:	6032      	str	r2, [r6, #0]
 8002ab0:	681e      	ldr	r6, [r3, #0]
 8002ab2:	6862      	ldr	r2, [r4, #4]
 8002ab4:	4630      	mov	r0, r6
 8002ab6:	f000 fa95 	bl	8002fe4 <memchr>
 8002aba:	b108      	cbz	r0, 8002ac0 <_printf_i+0x1e4>
 8002abc:	1b80      	subs	r0, r0, r6
 8002abe:	6060      	str	r0, [r4, #4]
 8002ac0:	6863      	ldr	r3, [r4, #4]
 8002ac2:	6123      	str	r3, [r4, #16]
 8002ac4:	2300      	movs	r3, #0
 8002ac6:	f884 3043 	strb.w	r3, [r4, #67]	@ 0x43
 8002aca:	e7aa      	b.n	8002a22 <_printf_i+0x146>
 8002acc:	4632      	mov	r2, r6
 8002ace:	4649      	mov	r1, r9
 8002ad0:	4640      	mov	r0, r8
 8002ad2:	6923      	ldr	r3, [r4, #16]
 8002ad4:	47d0      	blx	sl
 8002ad6:	3001      	adds	r0, #1
 8002ad8:	d0ad      	beq.n	8002a36 <_printf_i+0x15a>
 8002ada:	6823      	ldr	r3, [r4, #0]
 8002adc:	079b      	lsls	r3, r3, #30
 8002ade:	d413      	bmi.n	8002b08 <_printf_i+0x22c>
 8002ae0:	68e0      	ldr	r0, [r4, #12]
 8002ae2:	9b03      	ldr	r3, [sp, #12]
 8002ae4:	4298      	cmp	r0, r3
 8002ae6:	bfb8      	it	lt
 8002ae8:	4618      	movlt	r0, r3
 8002aea:	e7a6      	b.n	8002a3a <_printf_i+0x15e>
 8002aec:	2301      	movs	r3, #1
 8002aee:	4632      	mov	r2, r6
 8002af0:	4649      	mov	r1, r9
 8002af2:	4640      	mov	r0, r8
 8002af4:	47d0      	blx	sl
 8002af6:	3001      	adds	r0, #1
 8002af8:	d09d      	beq.n	8002a36 <_printf_i+0x15a>
 8002afa:	3501      	adds	r5, #1
 8002afc:	68e3      	ldr	r3, [r4, #12]
 8002afe:	9903      	ldr	r1, [sp, #12]
 8002b00:	1a5b      	subs	r3, r3, r1
 8002b02:	42ab      	cmp	r3, r5
 8002b04:	dcf2      	bgt.n	8002aec <_printf_i+0x210>
 8002b06:	e7eb      	b.n	8002ae0 <_printf_i+0x204>
 8002b08:	2500      	movs	r5, #0
 8002b0a:	f104 0619 	add.w	r6, r4, #25
 8002b0e:	e7f5      	b.n	8002afc <_printf_i+0x220>
 8002b10:	080030e6 	.word	0x080030e6
 8002b14:	080030f7 	.word	0x080030f7

08002b18 <__sflush_r>:
 8002b18:	f9b1 200c 	ldrsh.w	r2, [r1, #12]
 8002b1c:	b5f8      	push	{r3, r4, r5, r6, r7, lr}
 8002b1e:	0716      	lsls	r6, r2, #28
 8002b20:	4605      	mov	r5, r0
 8002b22:	460c      	mov	r4, r1
 8002b24:	d454      	bmi.n	8002bd0 <__sflush_r+0xb8>
 8002b26:	684b      	ldr	r3, [r1, #4]
 8002b28:	2b00      	cmp	r3, #0
 8002b2a:	dc02      	bgt.n	8002b32 <__sflush_r+0x1a>
 8002b2c:	6c0b      	ldr	r3, [r1, #64]	@ 0x40
 8002b2e:	2b00      	cmp	r3, #0
 8002b30:	dd48      	ble.n	8002bc4 <__sflush_r+0xac>
 8002b32:	6ae6      	ldr	r6, [r4, #44]	@ 0x2c
 8002b34:	2e00      	cmp	r6, #0
 8002b36:	d045      	beq.n	8002bc4 <__sflush_r+0xac>
 8002b38:	2300      	movs	r3, #0
 8002b3a:	f412 5280 	ands.w	r2, r2, #4096	@ 0x1000
 8002b3e:	682f      	ldr	r7, [r5, #0]
 8002b40:	6a21      	ldr	r1, [r4, #32]
 8002b42:	602b      	str	r3, [r5, #0]
 8002b44:	d030      	beq.n	8002ba8 <__sflush_r+0x90>
 8002b46:	6d62      	ldr	r2, [r4, #84]	@ 0x54
 8002b48:	89a3      	ldrh	r3, [r4, #12]
 8002b4a:	0759      	lsls	r1, r3, #29
 8002b4c:	d505      	bpl.n	8002b5a <__sflush_r+0x42>
 8002b4e:	6863      	ldr	r3, [r4, #4]
 8002b50:	1ad2      	subs	r2, r2, r3
 8002b52:	6b63      	ldr	r3, [r4, #52]	@ 0x34
 8002b54:	b10b      	cbz	r3, 8002b5a <__sflush_r+0x42>
 8002b56:	6c23      	ldr	r3, [r4, #64]	@ 0x40
 8002b58:	1ad2      	subs	r2, r2, r3
 8002b5a:	2300      	movs	r3, #0
 8002b5c:	4628      	mov	r0, r5
 8002b5e:	6ae6      	ldr	r6, [r4, #44]	@ 0x2c
 8002b60:	6a21      	ldr	r1, [r4, #32]
 8002b62:	47b0      	blx	r6
 8002b64:	1c43      	adds	r3, r0, #1
 8002b66:	89a3      	ldrh	r3, [r4, #12]
 8002b68:	d106      	bne.n	8002b78 <__sflush_r+0x60>
 8002b6a:	6829      	ldr	r1, [r5, #0]
 8002b6c:	291d      	cmp	r1, #29
 8002b6e:	d82b      	bhi.n	8002bc8 <__sflush_r+0xb0>
 8002b70:	4a28      	ldr	r2, [pc, #160]	@ (8002c14 <__sflush_r+0xfc>)
 8002b72:	40ca      	lsrs	r2, r1
 8002b74:	07d6      	lsls	r6, r2, #31
 8002b76:	d527      	bpl.n	8002bc8 <__sflush_r+0xb0>
 8002b78:	2200      	movs	r2, #0
 8002b7a:	6062      	str	r2, [r4, #4]
 8002b7c:	6922      	ldr	r2, [r4, #16]
 8002b7e:	04d9      	lsls	r1, r3, #19
 8002b80:	6022      	str	r2, [r4, #0]
 8002b82:	d504      	bpl.n	8002b8e <__sflush_r+0x76>
 8002b84:	1c42      	adds	r2, r0, #1
 8002b86:	d101      	bne.n	8002b8c <__sflush_r+0x74>
 8002b88:	682b      	ldr	r3, [r5, #0]
 8002b8a:	b903      	cbnz	r3, 8002b8e <__sflush_r+0x76>
 8002b8c:	6560      	str	r0, [r4, #84]	@ 0x54
 8002b8e:	6b61      	ldr	r1, [r4, #52]	@ 0x34
 8002b90:	602f      	str	r7, [r5, #0]
 8002b92:	b1b9      	cbz	r1, 8002bc4 <__sflush_r+0xac>
 8002b94:	f104 0344 	add.w	r3, r4, #68	@ 0x44
 8002b98:	4299      	cmp	r1, r3
 8002b9a:	d002      	beq.n	8002ba2 <__sflush_r+0x8a>
 8002b9c:	4628      	mov	r0, r5
 8002b9e:	f000 fa2f 	bl	8003000 <_free_r>
 8002ba2:	2300      	movs	r3, #0
 8002ba4:	6363      	str	r3, [r4, #52]	@ 0x34
 8002ba6:	e00d      	b.n	8002bc4 <__sflush_r+0xac>
 8002ba8:	2301      	movs	r3, #1
 8002baa:	4628      	mov	r0, r5
 8002bac:	47b0      	blx	r6
 8002bae:	4602      	mov	r2, r0
 8002bb0:	1c50      	adds	r0, r2, #1
 8002bb2:	d1c9      	bne.n	8002b48 <__sflush_r+0x30>
 8002bb4:	682b      	ldr	r3, [r5, #0]
 8002bb6:	2b00      	cmp	r3, #0
 8002bb8:	d0c6      	beq.n	8002b48 <__sflush_r+0x30>
 8002bba:	2b1d      	cmp	r3, #29
 8002bbc:	d001      	beq.n	8002bc2 <__sflush_r+0xaa>
 8002bbe:	2b16      	cmp	r3, #22
 8002bc0:	d11d      	bne.n	8002bfe <__sflush_r+0xe6>
 8002bc2:	602f      	str	r7, [r5, #0]
 8002bc4:	2000      	movs	r0, #0
 8002bc6:	e021      	b.n	8002c0c <__sflush_r+0xf4>
 8002bc8:	f043 0340 	orr.w	r3, r3, #64	@ 0x40
 8002bcc:	b21b      	sxth	r3, r3
 8002bce:	e01a      	b.n	8002c06 <__sflush_r+0xee>
 8002bd0:	690f      	ldr	r7, [r1, #16]
 8002bd2:	2f00      	cmp	r7, #0
 8002bd4:	d0f6      	beq.n	8002bc4 <__sflush_r+0xac>
 8002bd6:	0793      	lsls	r3, r2, #30
 8002bd8:	bf18      	it	ne
 8002bda:	2300      	movne	r3, #0
 8002bdc:	680e      	ldr	r6, [r1, #0]
 8002bde:	bf08      	it	eq
 8002be0:	694b      	ldreq	r3, [r1, #20]
 8002be2:	1bf6      	subs	r6, r6, r7
 8002be4:	600f      	str	r7, [r1, #0]
 8002be6:	608b      	str	r3, [r1, #8]
 8002be8:	2e00      	cmp	r6, #0
 8002bea:	ddeb      	ble.n	8002bc4 <__sflush_r+0xac>
 8002bec:	4633      	mov	r3, r6
 8002bee:	463a      	mov	r2, r7
 8002bf0:	4628      	mov	r0, r5
 8002bf2:	6a21      	ldr	r1, [r4, #32]
 8002bf4:	f8d4 c028 	ldr.w	ip, [r4, #40]	@ 0x28
 8002bf8:	47e0      	blx	ip
 8002bfa:	2800      	cmp	r0, #0
 8002bfc:	dc07      	bgt.n	8002c0e <__sflush_r+0xf6>
 8002bfe:	f9b4 300c 	ldrsh.w	r3, [r4, #12]
 8002c02:	f043 0340 	orr.w	r3, r3, #64	@ 0x40
 8002c06:	f04f 30ff 	mov.w	r0, #4294967295	@ 0xffffffff
 8002c0a:	81a3      	strh	r3, [r4, #12]
 8002c0c:	bdf8      	pop	{r3, r4, r5, r6, r7, pc}
 8002c0e:	4407      	add	r7, r0
 8002c10:	1a36      	subs	r6, r6, r0
 8002c12:	e7e9      	b.n	8002be8 <__sflush_r+0xd0>
 8002c14:	20400001 	.word	0x20400001

08002c18 <_fflush_r>:
 8002c18:	b538      	push	{r3, r4, r5, lr}
 8002c1a:	690b      	ldr	r3, [r1, #16]
 8002c1c:	4605      	mov	r5, r0
 8002c1e:	460c      	mov	r4, r1
 8002c20:	b913      	cbnz	r3, 8002c28 <_fflush_r+0x10>
 8002c22:	2500      	movs	r5, #0
 8002c24:	4628      	mov	r0, r5
 8002c26:	bd38      	pop	{r3, r4, r5, pc}
 8002c28:	b118      	cbz	r0, 8002c32 <_fflush_r+0x1a>
 8002c2a:	6a03      	ldr	r3, [r0, #32]
 8002c2c:	b90b      	cbnz	r3, 8002c32 <_fflush_r+0x1a>
 8002c2e:	f7ff fb85 	bl	800233c <__sinit>
 8002c32:	f9b4 300c 	ldrsh.w	r3, [r4, #12]
 8002c36:	2b00      	cmp	r3, #0
 8002c38:	d0f3      	beq.n	8002c22 <_fflush_r+0xa>
 8002c3a:	6e62      	ldr	r2, [r4, #100]	@ 0x64
 8002c3c:	07d0      	lsls	r0, r2, #31
 8002c3e:	d404      	bmi.n	8002c4a <_fflush_r+0x32>
 8002c40:	0599      	lsls	r1, r3, #22
 8002c42:	d402      	bmi.n	8002c4a <_fflush_r+0x32>
 8002c44:	6da0      	ldr	r0, [r4, #88]	@ 0x58
 8002c46:	f7ff fbf4 	bl	8002432 <__retarget_lock_acquire_recursive>
 8002c4a:	4628      	mov	r0, r5
 8002c4c:	4621      	mov	r1, r4
 8002c4e:	f7ff ff63 	bl	8002b18 <__sflush_r>
 8002c52:	6e63      	ldr	r3, [r4, #100]	@ 0x64
 8002c54:	4605      	mov	r5, r0
 8002c56:	07da      	lsls	r2, r3, #31
 8002c58:	d4e4      	bmi.n	8002c24 <_fflush_r+0xc>
 8002c5a:	89a3      	ldrh	r3, [r4, #12]
 8002c5c:	059b      	lsls	r3, r3, #22
 8002c5e:	d4e1      	bmi.n	8002c24 <_fflush_r+0xc>
 8002c60:	6da0      	ldr	r0, [r4, #88]	@ 0x58
 8002c62:	f7ff fbe7 	bl	8002434 <__retarget_lock_release_recursive>
 8002c66:	e7dd      	b.n	8002c24 <_fflush_r+0xc>

08002c68 <__malloc_lock>:
 8002c68:	4801      	ldr	r0, [pc, #4]	@ (8002c70 <__malloc_lock+0x8>)
 8002c6a:	f7ff bbe2 	b.w	8002432 <__retarget_lock_acquire_recursive>
 8002c6e:	bf00      	nop
 8002c70:	20000350 	.word	0x20000350

08002c74 <__malloc_unlock>:
 8002c74:	4801      	ldr	r0, [pc, #4]	@ (8002c7c <__malloc_unlock+0x8>)
 8002c76:	f7ff bbdd 	b.w	8002434 <__retarget_lock_release_recursive>
 8002c7a:	bf00      	nop
 8002c7c:	20000350 	.word	0x20000350

08002c80 <__sread>:
 8002c80:	b510      	push	{r4, lr}
 8002c82:	460c      	mov	r4, r1
 8002c84:	f9b1 100e 	ldrsh.w	r1, [r1, #14]
 8002c88:	f000 f956 	bl	8002f38 <_read_r>
 8002c8c:	2800      	cmp	r0, #0
 8002c8e:	bfab      	itete	ge
 8002c90:	6d63      	ldrge	r3, [r4, #84]	@ 0x54
 8002c92:	89a3      	ldrhlt	r3, [r4, #12]
 8002c94:	181b      	addge	r3, r3, r0
 8002c96:	f423 5380 	biclt.w	r3, r3, #4096	@ 0x1000
 8002c9a:	bfac      	ite	ge
 8002c9c:	6563      	strge	r3, [r4, #84]	@ 0x54
 8002c9e:	81a3      	strhlt	r3, [r4, #12]
 8002ca0:	bd10      	pop	{r4, pc}

08002ca2 <__swrite>:
 8002ca2:	e92d 41f0 	stmdb	sp!, {r4, r5, r6, r7, r8, lr}
 8002ca6:	461f      	mov	r7, r3
 8002ca8:	898b      	ldrh	r3, [r1, #12]
 8002caa:	4605      	mov	r5, r0
 8002cac:	05db      	lsls	r3, r3, #23
 8002cae:	460c      	mov	r4, r1
 8002cb0:	4616      	mov	r6, r2
 8002cb2:	d505      	bpl.n	8002cc0 <__swrite+0x1e>
 8002cb4:	2302      	movs	r3, #2
 8002cb6:	2200      	movs	r2, #0
 8002cb8:	f9b1 100e 	ldrsh.w	r1, [r1, #14]
 8002cbc:	f000 f92a 	bl	8002f14 <_lseek_r>
 8002cc0:	89a3      	ldrh	r3, [r4, #12]
 8002cc2:	4632      	mov	r2, r6
 8002cc4:	f423 5380 	bic.w	r3, r3, #4096	@ 0x1000
 8002cc8:	81a3      	strh	r3, [r4, #12]
 8002cca:	4628      	mov	r0, r5
 8002ccc:	463b      	mov	r3, r7
 8002cce:	f9b4 100e 	ldrsh.w	r1, [r4, #14]
 8002cd2:	e8bd 41f0 	ldmia.w	sp!, {r4, r5, r6, r7, r8, lr}
 8002cd6:	f000 b951 	b.w	8002f7c <_write_r>

08002cda <__sseek>:
 8002cda:	b510      	push	{r4, lr}
 8002cdc:	460c      	mov	r4, r1
 8002cde:	f9b1 100e 	ldrsh.w	r1, [r1, #14]
 8002ce2:	f000 f917 	bl	8002f14 <_lseek_r>
 8002ce6:	1c43      	adds	r3, r0, #1
 8002ce8:	89a3      	ldrh	r3, [r4, #12]
 8002cea:	bf15      	itete	ne
 8002cec:	6560      	strne	r0, [r4, #84]	@ 0x54
 8002cee:	f423 5380 	biceq.w	r3, r3, #4096	@ 0x1000
 8002cf2:	f443 5380 	orrne.w	r3, r3, #4096	@ 0x1000
 8002cf6:	81a3      	strheq	r3, [r4, #12]
 8002cf8:	bf18      	it	ne
 8002cfa:	81a3      	strhne	r3, [r4, #12]
 8002cfc:	bd10      	pop	{r4, pc}

08002cfe <__sclose>:
 8002cfe:	f9b1 100e 	ldrsh.w	r1, [r1, #14]
 8002d02:	f000 b94d 	b.w	8002fa0 <_close_r>

08002d06 <__swbuf_r>:
 8002d06:	b5f8      	push	{r3, r4, r5, r6, r7, lr}
 8002d08:	460e      	mov	r6, r1
 8002d0a:	4614      	mov	r4, r2
 8002d0c:	4605      	mov	r5, r0
 8002d0e:	b118      	cbz	r0, 8002d18 <__swbuf_r+0x12>
 8002d10:	6a03      	ldr	r3, [r0, #32]
 8002d12:	b90b      	cbnz	r3, 8002d18 <__swbuf_r+0x12>
 8002d14:	f7ff fb12 	bl	800233c <__sinit>
 8002d18:	69a3      	ldr	r3, [r4, #24]
 8002d1a:	60a3      	str	r3, [r4, #8]
 8002d1c:	89a3      	ldrh	r3, [r4, #12]
 8002d1e:	071a      	lsls	r2, r3, #28
 8002d20:	d501      	bpl.n	8002d26 <__swbuf_r+0x20>
 8002d22:	6923      	ldr	r3, [r4, #16]
 8002d24:	b943      	cbnz	r3, 8002d38 <__swbuf_r+0x32>
 8002d26:	4621      	mov	r1, r4
 8002d28:	4628      	mov	r0, r5
 8002d2a:	f000 f82b 	bl	8002d84 <__swsetup_r>
 8002d2e:	b118      	cbz	r0, 8002d38 <__swbuf_r+0x32>
 8002d30:	f04f 37ff 	mov.w	r7, #4294967295	@ 0xffffffff
 8002d34:	4638      	mov	r0, r7
 8002d36:	bdf8      	pop	{r3, r4, r5, r6, r7, pc}
 8002d38:	6823      	ldr	r3, [r4, #0]
 8002d3a:	6922      	ldr	r2, [r4, #16]
 8002d3c:	b2f6      	uxtb	r6, r6
 8002d3e:	1a98      	subs	r0, r3, r2
 8002d40:	6963      	ldr	r3, [r4, #20]
 8002d42:	4637      	mov	r7, r6
 8002d44:	4283      	cmp	r3, r0
 8002d46:	dc05      	bgt.n	8002d54 <__swbuf_r+0x4e>
 8002d48:	4621      	mov	r1, r4
 8002d4a:	4628      	mov	r0, r5
 8002d4c:	f7ff ff64 	bl	8002c18 <_fflush_r>
 8002d50:	2800      	cmp	r0, #0
 8002d52:	d1ed      	bne.n	8002d30 <__swbuf_r+0x2a>
 8002d54:	68a3      	ldr	r3, [r4, #8]
 8002d56:	3b01      	subs	r3, #1
 8002d58:	60a3      	str	r3, [r4, #8]
 8002d5a:	6823      	ldr	r3, [r4, #0]
 8002d5c:	1c5a      	adds	r2, r3, #1
 8002d5e:	6022      	str	r2, [r4, #0]
 8002d60:	701e      	strb	r6, [r3, #0]
 8002d62:	6962      	ldr	r2, [r4, #20]
 8002d64:	1c43      	adds	r3, r0, #1
 8002d66:	429a      	cmp	r2, r3
 8002d68:	d004      	beq.n	8002d74 <__swbuf_r+0x6e>
 8002d6a:	89a3      	ldrh	r3, [r4, #12]
 8002d6c:	07db      	lsls	r3, r3, #31
 8002d6e:	d5e1      	bpl.n	8002d34 <__swbuf_r+0x2e>
 8002d70:	2e0a      	cmp	r6, #10
 8002d72:	d1df      	bne.n	8002d34 <__swbuf_r+0x2e>
 8002d74:	4621      	mov	r1, r4
 8002d76:	4628      	mov	r0, r5
 8002d78:	f7ff ff4e 	bl	8002c18 <_fflush_r>
 8002d7c:	2800      	cmp	r0, #0
 8002d7e:	d0d9      	beq.n	8002d34 <__swbuf_r+0x2e>
 8002d80:	e7d6      	b.n	8002d30 <__swbuf_r+0x2a>
	...

08002d84 <__swsetup_r>:
 8002d84:	b538      	push	{r3, r4, r5, lr}
 8002d86:	4b29      	ldr	r3, [pc, #164]	@ (8002e2c <__swsetup_r+0xa8>)
 8002d88:	4605      	mov	r5, r0
 8002d8a:	6818      	ldr	r0, [r3, #0]
 8002d8c:	460c      	mov	r4, r1
 8002d8e:	b118      	cbz	r0, 8002d98 <__swsetup_r+0x14>
 8002d90:	6a03      	ldr	r3, [r0, #32]
 8002d92:	b90b      	cbnz	r3, 8002d98 <__swsetup_r+0x14>
 8002d94:	f7ff fad2 	bl	800233c <__sinit>
 8002d98:	f9b4 300c 	ldrsh.w	r3, [r4, #12]
 8002d9c:	0719      	lsls	r1, r3, #28
 8002d9e:	d422      	bmi.n	8002de6 <__swsetup_r+0x62>
 8002da0:	06da      	lsls	r2, r3, #27
 8002da2:	d407      	bmi.n	8002db4 <__swsetup_r+0x30>
 8002da4:	2209      	movs	r2, #9
 8002da6:	602a      	str	r2, [r5, #0]
 8002da8:	f043 0340 	orr.w	r3, r3, #64	@ 0x40
 8002dac:	f04f 30ff 	mov.w	r0, #4294967295	@ 0xffffffff
 8002db0:	81a3      	strh	r3, [r4, #12]
 8002db2:	e033      	b.n	8002e1c <__swsetup_r+0x98>
 8002db4:	0758      	lsls	r0, r3, #29
 8002db6:	d512      	bpl.n	8002dde <__swsetup_r+0x5a>
 8002db8:	6b61      	ldr	r1, [r4, #52]	@ 0x34
 8002dba:	b141      	cbz	r1, 8002dce <__swsetup_r+0x4a>
 8002dbc:	f104 0344 	add.w	r3, r4, #68	@ 0x44
 8002dc0:	4299      	cmp	r1, r3
 8002dc2:	d002      	beq.n	8002dca <__swsetup_r+0x46>
 8002dc4:	4628      	mov	r0, r5
 8002dc6:	f000 f91b 	bl	8003000 <_free_r>
 8002dca:	2300      	movs	r3, #0
 8002dcc:	6363      	str	r3, [r4, #52]	@ 0x34
 8002dce:	89a3      	ldrh	r3, [r4, #12]
 8002dd0:	f023 0324 	bic.w	r3, r3, #36	@ 0x24
 8002dd4:	81a3      	strh	r3, [r4, #12]
 8002dd6:	2300      	movs	r3, #0
 8002dd8:	6063      	str	r3, [r4, #4]
 8002dda:	6923      	ldr	r3, [r4, #16]
 8002ddc:	6023      	str	r3, [r4, #0]
 8002dde:	89a3      	ldrh	r3, [r4, #12]
 8002de0:	f043 0308 	orr.w	r3, r3, #8
 8002de4:	81a3      	strh	r3, [r4, #12]
 8002de6:	6923      	ldr	r3, [r4, #16]
 8002de8:	b94b      	cbnz	r3, 8002dfe <__swsetup_r+0x7a>
 8002dea:	89a3      	ldrh	r3, [r4, #12]
 8002dec:	f403 7320 	and.w	r3, r3, #640	@ 0x280
 8002df0:	f5b3 7f00 	cmp.w	r3, #512	@ 0x200
 8002df4:	d003      	beq.n	8002dfe <__swsetup_r+0x7a>
 8002df6:	4621      	mov	r1, r4
 8002df8:	4628      	mov	r0, r5
 8002dfa:	f000 f83e 	bl	8002e7a <__smakebuf_r>
 8002dfe:	f9b4 300c 	ldrsh.w	r3, [r4, #12]
 8002e02:	f013 0201 	ands.w	r2, r3, #1
 8002e06:	d00a      	beq.n	8002e1e <__swsetup_r+0x9a>
 8002e08:	2200      	movs	r2, #0
 8002e0a:	60a2      	str	r2, [r4, #8]
 8002e0c:	6962      	ldr	r2, [r4, #20]
 8002e0e:	4252      	negs	r2, r2
 8002e10:	61a2      	str	r2, [r4, #24]
 8002e12:	6922      	ldr	r2, [r4, #16]
 8002e14:	b942      	cbnz	r2, 8002e28 <__swsetup_r+0xa4>
 8002e16:	f013 0080 	ands.w	r0, r3, #128	@ 0x80
 8002e1a:	d1c5      	bne.n	8002da8 <__swsetup_r+0x24>
 8002e1c:	bd38      	pop	{r3, r4, r5, pc}
 8002e1e:	0799      	lsls	r1, r3, #30
 8002e20:	bf58      	it	pl
 8002e22:	6962      	ldrpl	r2, [r4, #20]
 8002e24:	60a2      	str	r2, [r4, #8]
 8002e26:	e7f4      	b.n	8002e12 <__swsetup_r+0x8e>
 8002e28:	2000      	movs	r0, #0
 8002e2a:	e7f7      	b.n	8002e1c <__swsetup_r+0x98>
 8002e2c:	20000020 	.word	0x20000020

08002e30 <__swhatbuf_r>:
 8002e30:	b570      	push	{r4, r5, r6, lr}
 8002e32:	460c      	mov	r4, r1
 8002e34:	f9b1 100e 	ldrsh.w	r1, [r1, #14]
 8002e38:	4615      	mov	r5, r2
 8002e3a:	2900      	cmp	r1, #0
 8002e3c:	461e      	mov	r6, r3
 8002e3e:	b096      	sub	sp, #88	@ 0x58
 8002e40:	da0c      	bge.n	8002e5c <__swhatbuf_r+0x2c>
 8002e42:	89a3      	ldrh	r3, [r4, #12]
 8002e44:	2100      	movs	r1, #0
 8002e46:	f013 0f80 	tst.w	r3, #128	@ 0x80
 8002e4a:	bf14      	ite	ne
 8002e4c:	2340      	movne	r3, #64	@ 0x40
 8002e4e:	f44f 6380 	moveq.w	r3, #1024	@ 0x400
 8002e52:	2000      	movs	r0, #0
 8002e54:	6031      	str	r1, [r6, #0]
 8002e56:	602b      	str	r3, [r5, #0]
 8002e58:	b016      	add	sp, #88	@ 0x58
 8002e5a:	bd70      	pop	{r4, r5, r6, pc}
 8002e5c:	466a      	mov	r2, sp
 8002e5e:	f000 f8af 	bl	8002fc0 <_fstat_r>
 8002e62:	2800      	cmp	r0, #0
 8002e64:	dbed      	blt.n	8002e42 <__swhatbuf_r+0x12>
 8002e66:	9901      	ldr	r1, [sp, #4]
 8002e68:	f401 4170 	and.w	r1, r1, #61440	@ 0xf000
 8002e6c:	f5a1 5300 	sub.w	r3, r1, #8192	@ 0x2000
 8002e70:	4259      	negs	r1, r3
 8002e72:	4159      	adcs	r1, r3
 8002e74:	f44f 6380 	mov.w	r3, #1024	@ 0x400
 8002e78:	e7eb      	b.n	8002e52 <__swhatbuf_r+0x22>

08002e7a <__smakebuf_r>:
 8002e7a:	898b      	ldrh	r3, [r1, #12]
 8002e7c:	b5f7      	push	{r0, r1, r2, r4, r5, r6, r7, lr}
 8002e7e:	079d      	lsls	r5, r3, #30
 8002e80:	4606      	mov	r6, r0
 8002e82:	460c      	mov	r4, r1
 8002e84:	d507      	bpl.n	8002e96 <__smakebuf_r+0x1c>
 8002e86:	f104 0347 	add.w	r3, r4, #71	@ 0x47
 8002e8a:	6023      	str	r3, [r4, #0]
 8002e8c:	6123      	str	r3, [r4, #16]
 8002e8e:	2301      	movs	r3, #1
 8002e90:	6163      	str	r3, [r4, #20]
 8002e92:	b003      	add	sp, #12
 8002e94:	bdf0      	pop	{r4, r5, r6, r7, pc}
 8002e96:	466a      	mov	r2, sp
 8002e98:	ab01      	add	r3, sp, #4
 8002e9a:	f7ff ffc9 	bl	8002e30 <__swhatbuf_r>
 8002e9e:	9f00      	ldr	r7, [sp, #0]
 8002ea0:	4605      	mov	r5, r0
 8002ea2:	4639      	mov	r1, r7
 8002ea4:	4630      	mov	r0, r6
 8002ea6:	f7ff fc27 	bl	80026f8 <_malloc_r>
 8002eaa:	b948      	cbnz	r0, 8002ec0 <__smakebuf_r+0x46>
 8002eac:	f9b4 300c 	ldrsh.w	r3, [r4, #12]
 8002eb0:	059a      	lsls	r2, r3, #22
 8002eb2:	d4ee      	bmi.n	8002e92 <__smakebuf_r+0x18>
 8002eb4:	f023 0303 	bic.w	r3, r3, #3
 8002eb8:	f043 0302 	orr.w	r3, r3, #2
 8002ebc:	81a3      	strh	r3, [r4, #12]
 8002ebe:	e7e2      	b.n	8002e86 <__smakebuf_r+0xc>
 8002ec0:	89a3      	ldrh	r3, [r4, #12]
 8002ec2:	e9c4 0704 	strd	r0, r7, [r4, #16]
 8002ec6:	f043 0380 	orr.w	r3, r3, #128	@ 0x80
 8002eca:	81a3      	strh	r3, [r4, #12]
 8002ecc:	9b01      	ldr	r3, [sp, #4]
 8002ece:	6020      	str	r0, [r4, #0]
 8002ed0:	b15b      	cbz	r3, 8002eea <__smakebuf_r+0x70>
 8002ed2:	4630      	mov	r0, r6
 8002ed4:	f9b4 100e 	ldrsh.w	r1, [r4, #14]
 8002ed8:	f000 f80c 	bl	8002ef4 <_isatty_r>
 8002edc:	b128      	cbz	r0, 8002eea <__smakebuf_r+0x70>
 8002ede:	89a3      	ldrh	r3, [r4, #12]
 8002ee0:	f023 0303 	bic.w	r3, r3, #3
 8002ee4:	f043 0301 	orr.w	r3, r3, #1
 8002ee8:	81a3      	strh	r3, [r4, #12]
 8002eea:	89a3      	ldrh	r3, [r4, #12]
 8002eec:	431d      	orrs	r5, r3
 8002eee:	81a5      	strh	r5, [r4, #12]
 8002ef0:	e7cf      	b.n	8002e92 <__smakebuf_r+0x18>
	...

08002ef4 <_isatty_r>:
 8002ef4:	b538      	push	{r3, r4, r5, lr}
 8002ef6:	2300      	movs	r3, #0
 8002ef8:	4d05      	ldr	r5, [pc, #20]	@ (8002f10 <_isatty_r+0x1c>)
 8002efa:	4604      	mov	r4, r0
 8002efc:	4608      	mov	r0, r1
 8002efe:	602b      	str	r3, [r5, #0]
 8002f00:	f7ff f972 	bl	80021e8 <_isatty>
 8002f04:	1c43      	adds	r3, r0, #1
 8002f06:	d102      	bne.n	8002f0e <_isatty_r+0x1a>
 8002f08:	682b      	ldr	r3, [r5, #0]
 8002f0a:	b103      	cbz	r3, 8002f0e <_isatty_r+0x1a>
 8002f0c:	6023      	str	r3, [r4, #0]
 8002f0e:	bd38      	pop	{r3, r4, r5, pc}
 8002f10:	2000035c 	.word	0x2000035c

08002f14 <_lseek_r>:
 8002f14:	b538      	push	{r3, r4, r5, lr}
 8002f16:	4604      	mov	r4, r0
 8002f18:	4608      	mov	r0, r1
 8002f1a:	4611      	mov	r1, r2
 8002f1c:	2200      	movs	r2, #0
 8002f1e:	4d05      	ldr	r5, [pc, #20]	@ (8002f34 <_lseek_r+0x20>)
 8002f20:	602a      	str	r2, [r5, #0]
 8002f22:	461a      	mov	r2, r3
 8002f24:	f7fe ff75 	bl	8001e12 <_lseek>
 8002f28:	1c43      	adds	r3, r0, #1
 8002f2a:	d102      	bne.n	8002f32 <_lseek_r+0x1e>
 8002f2c:	682b      	ldr	r3, [r5, #0]
 8002f2e:	b103      	cbz	r3, 8002f32 <_lseek_r+0x1e>
 8002f30:	6023      	str	r3, [r4, #0]
 8002f32:	bd38      	pop	{r3, r4, r5, pc}
 8002f34:	2000035c 	.word	0x2000035c

08002f38 <_read_r>:
 8002f38:	b538      	push	{r3, r4, r5, lr}
 8002f3a:	4604      	mov	r4, r0
 8002f3c:	4608      	mov	r0, r1
 8002f3e:	4611      	mov	r1, r2
 8002f40:	2200      	movs	r2, #0
 8002f42:	4d05      	ldr	r5, [pc, #20]	@ (8002f58 <_read_r+0x20>)
 8002f44:	602a      	str	r2, [r5, #0]
 8002f46:	461a      	mov	r2, r3
 8002f48:	f7fe ff0d 	bl	8001d66 <_read>
 8002f4c:	1c43      	adds	r3, r0, #1
 8002f4e:	d102      	bne.n	8002f56 <_read_r+0x1e>
 8002f50:	682b      	ldr	r3, [r5, #0]
 8002f52:	b103      	cbz	r3, 8002f56 <_read_r+0x1e>
 8002f54:	6023      	str	r3, [r4, #0]
 8002f56:	bd38      	pop	{r3, r4, r5, pc}
 8002f58:	2000035c 	.word	0x2000035c

08002f5c <_sbrk_r>:
 8002f5c:	b538      	push	{r3, r4, r5, lr}
 8002f5e:	2300      	movs	r3, #0
 8002f60:	4d05      	ldr	r5, [pc, #20]	@ (8002f78 <_sbrk_r+0x1c>)
 8002f62:	4604      	mov	r4, r0
 8002f64:	4608      	mov	r0, r1
 8002f66:	602b      	str	r3, [r5, #0]
 8002f68:	f7fd fbe8 	bl	800073c <_sbrk>
 8002f6c:	1c43      	adds	r3, r0, #1
 8002f6e:	d102      	bne.n	8002f76 <_sbrk_r+0x1a>
 8002f70:	682b      	ldr	r3, [r5, #0]
 8002f72:	b103      	cbz	r3, 8002f76 <_sbrk_r+0x1a>
 8002f74:	6023      	str	r3, [r4, #0]
 8002f76:	bd38      	pop	{r3, r4, r5, pc}
 8002f78:	2000035c 	.word	0x2000035c

08002f7c <_write_r>:
 8002f7c:	b538      	push	{r3, r4, r5, lr}
 8002f7e:	4604      	mov	r4, r0
 8002f80:	4608      	mov	r0, r1
 8002f82:	4611      	mov	r1, r2
 8002f84:	2200      	movs	r2, #0
 8002f86:	4d05      	ldr	r5, [pc, #20]	@ (8002f9c <_write_r+0x20>)
 8002f88:	602a      	str	r2, [r5, #0]
 8002f8a:	461a      	mov	r2, r3
 8002f8c:	f7fe ff53 	bl	8001e36 <_write>
 8002f90:	1c43      	adds	r3, r0, #1
 8002f92:	d102      	bne.n	8002f9a <_write_r+0x1e>
 8002f94:	682b      	ldr	r3, [r5, #0]
 8002f96:	b103      	cbz	r3, 8002f9a <_write_r+0x1e>
 8002f98:	6023      	str	r3, [r4, #0]
 8002f9a:	bd38      	pop	{r3, r4, r5, pc}
 8002f9c:	2000035c 	.word	0x2000035c

08002fa0 <_close_r>:
 8002fa0:	b538      	push	{r3, r4, r5, lr}
 8002fa2:	2300      	movs	r3, #0
 8002fa4:	4d05      	ldr	r5, [pc, #20]	@ (8002fbc <_close_r+0x1c>)
 8002fa6:	4604      	mov	r4, r0
 8002fa8:	4608      	mov	r0, r1
 8002faa:	602b      	str	r3, [r5, #0]
 8002fac:	f7fe ff70 	bl	8001e90 <_close>
 8002fb0:	1c43      	adds	r3, r0, #1
 8002fb2:	d102      	bne.n	8002fba <_close_r+0x1a>
 8002fb4:	682b      	ldr	r3, [r5, #0]
 8002fb6:	b103      	cbz	r3, 8002fba <_close_r+0x1a>
 8002fb8:	6023      	str	r3, [r4, #0]
 8002fba:	bd38      	pop	{r3, r4, r5, pc}
 8002fbc:	2000035c 	.word	0x2000035c

08002fc0 <_fstat_r>:
 8002fc0:	b538      	push	{r3, r4, r5, lr}
 8002fc2:	2300      	movs	r3, #0
 8002fc4:	4d06      	ldr	r5, [pc, #24]	@ (8002fe0 <_fstat_r+0x20>)
 8002fc6:	4604      	mov	r4, r0
 8002fc8:	4608      	mov	r0, r1
 8002fca:	4611      	mov	r1, r2
 8002fcc:	602b      	str	r3, [r5, #0]
 8002fce:	f7fe ffa6 	bl	8001f1e <_fstat>
 8002fd2:	1c43      	adds	r3, r0, #1
 8002fd4:	d102      	bne.n	8002fdc <_fstat_r+0x1c>
 8002fd6:	682b      	ldr	r3, [r5, #0]
 8002fd8:	b103      	cbz	r3, 8002fdc <_fstat_r+0x1c>
 8002fda:	6023      	str	r3, [r4, #0]
 8002fdc:	bd38      	pop	{r3, r4, r5, pc}
 8002fde:	bf00      	nop
 8002fe0:	2000035c 	.word	0x2000035c

08002fe4 <memchr>:
 8002fe4:	4603      	mov	r3, r0
 8002fe6:	b510      	push	{r4, lr}
 8002fe8:	b2c9      	uxtb	r1, r1
 8002fea:	4402      	add	r2, r0
 8002fec:	4293      	cmp	r3, r2
 8002fee:	4618      	mov	r0, r3
 8002ff0:	d101      	bne.n	8002ff6 <memchr+0x12>
 8002ff2:	2000      	movs	r0, #0
 8002ff4:	e003      	b.n	8002ffe <memchr+0x1a>
 8002ff6:	7804      	ldrb	r4, [r0, #0]
 8002ff8:	3301      	adds	r3, #1
 8002ffa:	428c      	cmp	r4, r1
 8002ffc:	d1f6      	bne.n	8002fec <memchr+0x8>
 8002ffe:	bd10      	pop	{r4, pc}

08003000 <_free_r>:
 8003000:	b538      	push	{r3, r4, r5, lr}
 8003002:	4605      	mov	r5, r0
 8003004:	2900      	cmp	r1, #0
 8003006:	d040      	beq.n	800308a <_free_r+0x8a>
 8003008:	f851 3c04 	ldr.w	r3, [r1, #-4]
 800300c:	1f0c      	subs	r4, r1, #4
 800300e:	2b00      	cmp	r3, #0
 8003010:	bfb8      	it	lt
 8003012:	18e4      	addlt	r4, r4, r3
 8003014:	f7ff fe28 	bl	8002c68 <__malloc_lock>
 8003018:	4a1c      	ldr	r2, [pc, #112]	@ (800308c <_free_r+0x8c>)
 800301a:	6813      	ldr	r3, [r2, #0]
 800301c:	b933      	cbnz	r3, 800302c <_free_r+0x2c>
 800301e:	6063      	str	r3, [r4, #4]
 8003020:	6014      	str	r4, [r2, #0]
 8003022:	4628      	mov	r0, r5
 8003024:	e8bd 4038 	ldmia.w	sp!, {r3, r4, r5, lr}
 8003028:	f7ff be24 	b.w	8002c74 <__malloc_unlock>
 800302c:	42a3      	cmp	r3, r4
 800302e:	d908      	bls.n	8003042 <_free_r+0x42>
 8003030:	6820      	ldr	r0, [r4, #0]
 8003032:	1821      	adds	r1, r4, r0
 8003034:	428b      	cmp	r3, r1
 8003036:	bf01      	itttt	eq
 8003038:	6819      	ldreq	r1, [r3, #0]
 800303a:	685b      	ldreq	r3, [r3, #4]
 800303c:	1809      	addeq	r1, r1, r0
 800303e:	6021      	streq	r1, [r4, #0]
 8003040:	e7ed      	b.n	800301e <_free_r+0x1e>
 8003042:	461a      	mov	r2, r3
 8003044:	685b      	ldr	r3, [r3, #4]
 8003046:	b10b      	cbz	r3, 800304c <_free_r+0x4c>
 8003048:	42a3      	cmp	r3, r4
 800304a:	d9fa      	bls.n	8003042 <_free_r+0x42>
 800304c:	6811      	ldr	r1, [r2, #0]
 800304e:	1850      	adds	r0, r2, r1
 8003050:	42a0      	cmp	r0, r4
 8003052:	d10b      	bne.n	800306c <_free_r+0x6c>
 8003054:	6820      	ldr	r0, [r4, #0]
 8003056:	4401      	add	r1, r0
 8003058:	1850      	adds	r0, r2, r1
 800305a:	4283      	cmp	r3, r0
 800305c:	6011      	str	r1, [r2, #0]
 800305e:	d1e0      	bne.n	8003022 <_free_r+0x22>
 8003060:	6818      	ldr	r0, [r3, #0]
 8003062:	685b      	ldr	r3, [r3, #4]
 8003064:	4408      	add	r0, r1
 8003066:	6010      	str	r0, [r2, #0]
 8003068:	6053      	str	r3, [r2, #4]
 800306a:	e7da      	b.n	8003022 <_free_r+0x22>
 800306c:	d902      	bls.n	8003074 <_free_r+0x74>
 800306e:	230c      	movs	r3, #12
 8003070:	602b      	str	r3, [r5, #0]
 8003072:	e7d6      	b.n	8003022 <_free_r+0x22>
 8003074:	6820      	ldr	r0, [r4, #0]
 8003076:	1821      	adds	r1, r4, r0
 8003078:	428b      	cmp	r3, r1
 800307a:	bf01      	itttt	eq
 800307c:	6819      	ldreq	r1, [r3, #0]
 800307e:	685b      	ldreq	r3, [r3, #4]
 8003080:	1809      	addeq	r1, r1, r0
 8003082:	6021      	streq	r1, [r4, #0]
 8003084:	6063      	str	r3, [r4, #4]
 8003086:	6054      	str	r4, [r2, #4]
 8003088:	e7cb      	b.n	8003022 <_free_r+0x22>
 800308a:	bd38      	pop	{r3, r4, r5, pc}
 800308c:	20000358 	.word	0x20000358

08003090 <_init>:
 8003090:	b5f8      	push	{r3, r4, r5, r6, r7, lr}
 8003092:	bf00      	nop
 8003094:	bcf8      	pop	{r3, r4, r5, r6, r7}
 8003096:	bc08      	pop	{r3}
 8003098:	469e      	mov	lr, r3
 800309a:	4770      	bx	lr

0800309c <_fini>:
 800309c:	b5f8      	push	{r3, r4, r5, r6, r7, lr}
 800309e:	bf00      	nop
 80030a0:	bcf8      	pop	{r3, r4, r5, r6, r7}
 80030a2:	bc08      	pop	{r3}
 80030a4:	469e      	mov	lr, r3
 80030a6:	4770      	bx	lr
